
LPC1768/ADXL345_LCD.elf:     file format elf32-littlearm
architecture: arm, flags 0x00000112:
EXEC_P, HAS_SYMS, D_PAGED
start address 0x000039cd


Disassembly of section .text:

00000000 <__isr_vector>:
       0:	10008000 	.word	0x10008000
       4:	000039cd 	.word	0x000039cd
       8:	000039fd 	.word	0x000039fd
       c:	000039ff 	.word	0x000039ff
      10:	00003a01 	.word	0x00003a01
      14:	00003a03 	.word	0x00003a03
      18:	00003a05 	.word	0x00003a05
	...
      2c:	00003901 	.word	0x00003901
      30:	00003a09 	.word	0x00003a09
      34:	00000000 	.word	0x00000000
      38:	0000396b 	.word	0x0000396b
      3c:	000039a1 	.word	0x000039a1
      40:	00003a0f 	.word	0x00003a0f
      44:	00003a0f 	.word	0x00003a0f
      48:	00003a0f 	.word	0x00003a0f
      4c:	00003a0f 	.word	0x00003a0f
      50:	00003a0f 	.word	0x00003a0f
      54:	00003a0f 	.word	0x00003a0f
      58:	00003a0f 	.word	0x00003a0f
      5c:	00003a0f 	.word	0x00003a0f
      60:	00003a0f 	.word	0x00003a0f
      64:	00003a0f 	.word	0x00003a0f
      68:	00003a0f 	.word	0x00003a0f
      6c:	00003a0f 	.word	0x00003a0f
      70:	00003a0f 	.word	0x00003a0f
      74:	00003a0f 	.word	0x00003a0f
      78:	00003a0f 	.word	0x00003a0f
      7c:	00003a0f 	.word	0x00003a0f
      80:	00003a0f 	.word	0x00003a0f
      84:	00003a0f 	.word	0x00003a0f
      88:	00003a0f 	.word	0x00003a0f
      8c:	00003a0f 	.word	0x00003a0f
      90:	00003a0f 	.word	0x00003a0f
      94:	00003a0f 	.word	0x00003a0f
      98:	00003a0f 	.word	0x00003a0f
      9c:	00003a0f 	.word	0x00003a0f
      a0:	00003a0f 	.word	0x00003a0f
      a4:	00003a0f 	.word	0x00003a0f
      a8:	00003a0f 	.word	0x00003a0f
      ac:	00003a0f 	.word	0x00003a0f
      b0:	00003a0f 	.word	0x00003a0f
      b4:	00003a0f 	.word	0x00003a0f
      b8:	00003a0f 	.word	0x00003a0f
      bc:	00003a0f 	.word	0x00003a0f
      c0:	00003a0f 	.word	0x00003a0f
      c4:	00003a0f 	.word	0x00003a0f
      c8:	00003a0f 	.word	0x00003a0f

000000cc <__do_global_dtors_aux>:
      cc:	b510      	push	{r4, lr}
      ce:	4c05      	ldr	r4, [pc, #20]	; (e4 <__do_global_dtors_aux+0x18>)
      d0:	7823      	ldrb	r3, [r4, #0]
      d2:	b933      	cbnz	r3, e2 <__do_global_dtors_aux+0x16>
      d4:	4b04      	ldr	r3, [pc, #16]	; (e8 <__do_global_dtors_aux+0x1c>)
      d6:	b113      	cbz	r3, de <__do_global_dtors_aux+0x12>
      d8:	4804      	ldr	r0, [pc, #16]	; (ec <__do_global_dtors_aux+0x20>)
      da:	f3af 8000 	nop.w
      de:	2301      	movs	r3, #1
      e0:	7023      	strb	r3, [r4, #0]
      e2:	bd10      	pop	{r4, pc}
      e4:	100002c8 	.word	0x100002c8
      e8:	00000000 	.word	0x00000000
      ec:	00008a70 	.word	0x00008a70

000000f0 <frame_dummy>:
      f0:	4b0c      	ldr	r3, [pc, #48]	; (124 <frame_dummy+0x34>)
      f2:	b143      	cbz	r3, 106 <frame_dummy+0x16>
      f4:	480c      	ldr	r0, [pc, #48]	; (128 <frame_dummy+0x38>)
      f6:	b510      	push	{r4, lr}
      f8:	490c      	ldr	r1, [pc, #48]	; (12c <frame_dummy+0x3c>)
      fa:	f3af 8000 	nop.w
      fe:	480c      	ldr	r0, [pc, #48]	; (130 <frame_dummy+0x40>)
     100:	6803      	ldr	r3, [r0, #0]
     102:	b923      	cbnz	r3, 10e <frame_dummy+0x1e>
     104:	bd10      	pop	{r4, pc}
     106:	480a      	ldr	r0, [pc, #40]	; (130 <frame_dummy+0x40>)
     108:	6803      	ldr	r3, [r0, #0]
     10a:	b933      	cbnz	r3, 11a <frame_dummy+0x2a>
     10c:	4770      	bx	lr
     10e:	4b09      	ldr	r3, [pc, #36]	; (134 <frame_dummy+0x44>)
     110:	2b00      	cmp	r3, #0
     112:	d0f7      	beq.n	104 <frame_dummy+0x14>
     114:	e8bd 4010 	ldmia.w	sp!, {r4, lr}
     118:	4718      	bx	r3
     11a:	4b06      	ldr	r3, [pc, #24]	; (134 <frame_dummy+0x44>)
     11c:	2b00      	cmp	r3, #0
     11e:	d0f5      	beq.n	10c <frame_dummy+0x1c>
     120:	4718      	bx	r3
     122:	bf00      	nop
     124:	00000000 	.word	0x00000000
     128:	00008a70 	.word	0x00008a70
     12c:	100002cc 	.word	0x100002cc
     130:	100002c8 	.word	0x100002c8
     134:	00000000 	.word	0x00000000

00000138 <mbed::FileLike::lseek(long, int)>:
     138:	6803      	ldr	r3, [r0, #0]
     13a:	69db      	ldr	r3, [r3, #28]
     13c:	4718      	bx	r3

0000013e <mbed::FileLike::fsync()>:
     13e:	6803      	ldr	r3, [r0, #0]
     140:	695b      	ldr	r3, [r3, #20]
     142:	4718      	bx	r3

00000144 <mbed::FileLike::flen()>:
     144:	6803      	ldr	r3, [r0, #0]
     146:	6a9b      	ldr	r3, [r3, #40]	; 0x28
     148:	4718      	bx	r3

0000014a <mbed::FileLike::lock()>:
     14a:	4770      	bx	lr

0000014c <mbed::FileLike::unlock()>:
     14c:	4770      	bx	lr

0000014e <TextLCD::_getc()>:
     14e:	f04f 30ff 	mov.w	r0, #4294967295	; 0xffffffff
     152:	4770      	bx	lr

00000154 <TextLCD::locate(int, int)>:
     154:	f8c0 10a8 	str.w	r1, [r0, #168]	; 0xa8
     158:	f8c0 20ac 	str.w	r2, [r0, #172]	; 0xac
     15c:	4770      	bx	lr
	...

00000160 <TextLCD::writeByte(int)>:
     160:	b5f8      	push	{r3, r4, r5, r6, r7, lr}
     162:	4604      	mov	r4, r0
     164:	460f      	mov	r7, r1
     166:	4d12      	ldr	r5, [pc, #72]	; (1b0 <TextLCD::writeByte(int)+0x50>)
     168:	f100 0644 	add.w	r6, r0, #68	; 0x44
     16c:	1109      	asrs	r1, r1, #4
     16e:	4630      	mov	r0, r6
     170:	f002 fefc 	bl	2f6c <mbed::BusOut::operator=(int)>
     174:	4628      	mov	r0, r5
     176:	f003 f90d 	bl	3394 <wait>
     17a:	6be3      	ldr	r3, [r4, #60]	; 0x3c
     17c:	6b22      	ldr	r2, [r4, #48]	; 0x30
     17e:	4628      	mov	r0, r5
     180:	601a      	str	r2, [r3, #0]
     182:	f003 f907 	bl	3394 <wait>
     186:	6ba3      	ldr	r3, [r4, #56]	; 0x38
     188:	6b22      	ldr	r2, [r4, #48]	; 0x30
     18a:	4639      	mov	r1, r7
     18c:	601a      	str	r2, [r3, #0]
     18e:	4630      	mov	r0, r6
     190:	f002 feec 	bl	2f6c <mbed::BusOut::operator=(int)>
     194:	4628      	mov	r0, r5
     196:	f003 f8fd 	bl	3394 <wait>
     19a:	6be3      	ldr	r3, [r4, #60]	; 0x3c
     19c:	6b22      	ldr	r2, [r4, #48]	; 0x30
     19e:	4628      	mov	r0, r5
     1a0:	601a      	str	r2, [r3, #0]
     1a2:	f003 f8f7 	bl	3394 <wait>
     1a6:	6ba3      	ldr	r3, [r4, #56]	; 0x38
     1a8:	6b22      	ldr	r2, [r4, #48]	; 0x30
     1aa:	601a      	str	r2, [r3, #0]
     1ac:	bdf8      	pop	{r3, r4, r5, r6, r7, pc}
     1ae:	bf00      	nop
     1b0:	3827c5ac 	.word	0x3827c5ac

000001b4 <TextLCD::writeCommand(int)>:
     1b4:	6a42      	ldr	r2, [r0, #36]	; 0x24
     1b6:	6983      	ldr	r3, [r0, #24]
     1b8:	6013      	str	r3, [r2, #0]
     1ba:	f7ff bfd1 	b.w	160 <TextLCD::writeByte(int)>
	...

000001c0 <TextLCD::cls()>:
     1c0:	b510      	push	{r4, lr}
     1c2:	2101      	movs	r1, #1
     1c4:	4604      	mov	r4, r0
     1c6:	f7ff fff5 	bl	1b4 <TextLCD::writeCommand(int)>
     1ca:	4804      	ldr	r0, [pc, #16]	; (1dc <TextLCD::cls()+0x1c>)
     1cc:	f003 f8e2 	bl	3394 <wait>
     1d0:	2300      	movs	r3, #0
     1d2:	f8c4 30a8 	str.w	r3, [r4, #168]	; 0xa8
     1d6:	f8c4 30ac 	str.w	r3, [r4, #172]	; 0xac
     1da:	bd10      	pop	{r4, pc}
     1dc:	3ad6f545 	.word	0x3ad6f545

000001e0 <TextLCD::TextLCD(PinName, PinName, PinName, PinName, PinName, PinName, TextLCD::LCDType)>:
     1e0:	e92d 41f0 	stmdb	sp!, {r4, r5, r6, r7, r8, lr}
     1e4:	4604      	mov	r4, r0
     1e6:	4625      	mov	r5, r4
     1e8:	4688      	mov	r8, r1
     1ea:	4617      	mov	r7, r2
     1ec:	b08e      	sub	sp, #56	; 0x38
     1ee:	2100      	movs	r1, #0
     1f0:	461e      	mov	r6, r3
     1f2:	f002 fd1f 	bl	2c34 <mbed::Stream::Stream(char const*)>
     1f6:	4b30      	ldr	r3, [pc, #192]	; (2b8 <TextLCD::TextLCD(PinName, PinName, PinName, PinName, PinName, PinName, TextLCD::LCDType)+0xd8>)
     1f8:	2218      	movs	r2, #24
     1fa:	f845 3b14 	str.w	r3, [r5], #20
     1fe:	2100      	movs	r1, #0
     200:	4628      	mov	r0, r5
     202:	f004 fe60 	bl	4ec6 <memset>
     206:	4628      	mov	r0, r5
     208:	4641      	mov	r1, r8
     20a:	f104 052c 	add.w	r5, r4, #44	; 0x2c
     20e:	f000 fb15 	bl	83c <gpio_init_out>
     212:	2218      	movs	r2, #24
     214:	2100      	movs	r1, #0
     216:	4628      	mov	r0, r5
     218:	f004 fe55 	bl	4ec6 <memset>
     21c:	4628      	mov	r0, r5
     21e:	4639      	mov	r1, r7
     220:	f000 fb0c 	bl	83c <gpio_init_out>
     224:	f04f 33ff 	mov.w	r3, #4294967295	; 0xffffffff
     228:	930c      	str	r3, [sp, #48]	; 0x30
     22a:	930b      	str	r3, [sp, #44]	; 0x2c
     22c:	930a      	str	r3, [sp, #40]	; 0x28
     22e:	9309      	str	r3, [sp, #36]	; 0x24
     230:	9308      	str	r3, [sp, #32]
     232:	9307      	str	r3, [sp, #28]
     234:	9306      	str	r3, [sp, #24]
     236:	9305      	str	r3, [sp, #20]
     238:	9304      	str	r3, [sp, #16]
     23a:	9303      	str	r3, [sp, #12]
     23c:	9302      	str	r3, [sp, #8]
     23e:	9301      	str	r3, [sp, #4]
     240:	9b16      	ldr	r3, [sp, #88]	; 0x58
     242:	4631      	mov	r1, r6
     244:	9300      	str	r3, [sp, #0]
     246:	9a14      	ldr	r2, [sp, #80]	; 0x50
     248:	9b15      	ldr	r3, [sp, #84]	; 0x54
     24a:	f104 0044 	add.w	r0, r4, #68	; 0x44
     24e:	f002 fe1b 	bl	2e88 <mbed::BusOut::BusOut(PinName, PinName, PinName, PinName, PinName, PinName, PinName, PinName, PinName, PinName, PinName, PinName, PinName, PinName, PinName, PinName)>
     252:	f89d 305c 	ldrb.w	r3, [sp, #92]	; 0x5c
     256:	6b22      	ldr	r2, [r4, #48]	; 0x30
     258:	f884 30a4 	strb.w	r3, [r4, #164]	; 0xa4
     25c:	6ba3      	ldr	r3, [r4, #56]	; 0x38
     25e:	4817      	ldr	r0, [pc, #92]	; (2bc <TextLCD::TextLCD(PinName, PinName, PinName, PinName, PinName, PinName, TextLCD::LCDType)+0xdc>)
     260:	601a      	str	r2, [r3, #0]
     262:	69a2      	ldr	r2, [r4, #24]
     264:	6a63      	ldr	r3, [r4, #36]	; 0x24
     266:	2503      	movs	r5, #3
     268:	601a      	str	r2, [r3, #0]
     26a:	f003 f893 	bl	3394 <wait>
     26e:	4e14      	ldr	r6, [pc, #80]	; (2c0 <TextLCD::TextLCD(PinName, PinName, PinName, PinName, PinName, PinName, TextLCD::LCDType)+0xe0>)
     270:	2103      	movs	r1, #3
     272:	4620      	mov	r0, r4
     274:	f7ff ff74 	bl	160 <TextLCD::writeByte(int)>
     278:	4630      	mov	r0, r6
     27a:	f003 f88b 	bl	3394 <wait>
     27e:	3d01      	subs	r5, #1
     280:	d1f6      	bne.n	270 <TextLCD::TextLCD(PinName, PinName, PinName, PinName, PinName, PinName, TextLCD::LCDType)+0x90>
     282:	2102      	movs	r1, #2
     284:	4620      	mov	r0, r4
     286:	f7ff ff6b 	bl	160 <TextLCD::writeByte(int)>
     28a:	480e      	ldr	r0, [pc, #56]	; (2c4 <TextLCD::TextLCD(PinName, PinName, PinName, PinName, PinName, PinName, TextLCD::LCDType)+0xe4>)
     28c:	f003 f882 	bl	3394 <wait>
     290:	4620      	mov	r0, r4
     292:	2128      	movs	r1, #40	; 0x28
     294:	f7ff ff8e 	bl	1b4 <TextLCD::writeCommand(int)>
     298:	4620      	mov	r0, r4
     29a:	210c      	movs	r1, #12
     29c:	f7ff ff8a 	bl	1b4 <TextLCD::writeCommand(int)>
     2a0:	2106      	movs	r1, #6
     2a2:	4620      	mov	r0, r4
     2a4:	f7ff ff86 	bl	1b4 <TextLCD::writeCommand(int)>
     2a8:	4620      	mov	r0, r4
     2aa:	f7ff ff89 	bl	1c0 <TextLCD::cls()>
     2ae:	4620      	mov	r0, r4
     2b0:	b00e      	add	sp, #56	; 0x38
     2b2:	e8bd 81f0 	ldmia.w	sp!, {r4, r5, r6, r7, r8, pc}
     2b6:	bf00      	nop
     2b8:	000081dc 	.word	0x000081dc
     2bc:	3c75c28f 	.word	0x3c75c28f
     2c0:	3ad6f545 	.word	0x3ad6f545
     2c4:	3827c5ac 	.word	0x3827c5ac

000002c8 <TextLCD::writeData(int)>:
     2c8:	6a02      	ldr	r2, [r0, #32]
     2ca:	6983      	ldr	r3, [r0, #24]
     2cc:	6013      	str	r3, [r2, #0]
     2ce:	f7ff bf47 	b.w	160 <TextLCD::writeByte(int)>

000002d2 <TextLCD::address(int, int)>:
     2d2:	f890 30a4 	ldrb.w	r3, [r0, #164]	; 0xa4
     2d6:	2b01      	cmp	r3, #1
     2d8:	d010      	beq.n	2fc <TextLCD::address(int, int)+0x2a>
     2da:	2b03      	cmp	r3, #3
     2dc:	d114      	bne.n	308 <TextLCD::address(int, int)+0x36>
     2de:	2a03      	cmp	r2, #3
     2e0:	d80c      	bhi.n	2fc <TextLCD::address(int, int)+0x2a>
     2e2:	e8df f002 	tbb	[pc, r2]
     2e6:	020e      	.short	0x020e
     2e8:	0805      	.short	0x0805
     2ea:	f101 00c0 	add.w	r0, r1, #192	; 0xc0
     2ee:	4770      	bx	lr
     2f0:	f101 0094 	add.w	r0, r1, #148	; 0x94
     2f4:	4770      	bx	lr
     2f6:	f101 00d4 	add.w	r0, r1, #212	; 0xd4
     2fa:	4770      	bx	lr
     2fc:	2028      	movs	r0, #40	; 0x28
     2fe:	fb00 1102 	mla	r1, r0, r2, r1
     302:	f101 0080 	add.w	r0, r1, #128	; 0x80
     306:	4770      	bx	lr
     308:	1c90      	adds	r0, r2, #2
     30a:	eb01 1080 	add.w	r0, r1, r0, lsl #6
     30e:	4770      	bx	lr

00000310 <TextLCD::character(int, int, int)>:
     310:	b538      	push	{r3, r4, r5, lr}
     312:	4604      	mov	r4, r0
     314:	461d      	mov	r5, r3
     316:	f7ff ffdc 	bl	2d2 <TextLCD::address(int, int)>
     31a:	4601      	mov	r1, r0
     31c:	4620      	mov	r0, r4
     31e:	f7ff ff49 	bl	1b4 <TextLCD::writeCommand(int)>
     322:	4629      	mov	r1, r5
     324:	4620      	mov	r0, r4
     326:	e8bd 4038 	ldmia.w	sp!, {r3, r4, r5, lr}
     32a:	f7ff bfcd 	b.w	2c8 <TextLCD::writeData(int)>

0000032e <TextLCD::columns()>:
     32e:	f890 30a4 	ldrb.w	r3, [r0, #164]	; 0xa4
     332:	3b02      	subs	r3, #2
     334:	2b01      	cmp	r3, #1
     336:	bf8c      	ite	hi
     338:	2010      	movhi	r0, #16
     33a:	2014      	movls	r0, #20
     33c:	4770      	bx	lr

0000033e <TextLCD::rows()>:
     33e:	f890 30a4 	ldrb.w	r3, [r0, #164]	; 0xa4
     342:	2b03      	cmp	r3, #3
     344:	bf0c      	ite	eq
     346:	2004      	moveq	r0, #4
     348:	2002      	movne	r0, #2
     34a:	4770      	bx	lr

0000034c <TextLCD::_putc(int)>:
     34c:	290a      	cmp	r1, #10
     34e:	b538      	push	{r3, r4, r5, lr}
     350:	4604      	mov	r4, r0
     352:	460d      	mov	r5, r1
     354:	d110      	bne.n	378 <TextLCD::_putc(int)+0x2c>
     356:	2300      	movs	r3, #0
     358:	f8d0 20ac 	ldr.w	r2, [r0, #172]	; 0xac
     35c:	f8c0 30a8 	str.w	r3, [r0, #168]	; 0xa8
     360:	3201      	adds	r2, #1
     362:	f8c0 20ac 	str.w	r2, [r0, #172]	; 0xac
     366:	f7ff ffea 	bl	33e <TextLCD::rows()>
     36a:	4282      	cmp	r2, r0
     36c:	db02      	blt.n	374 <TextLCD::_putc(int)+0x28>
     36e:	2300      	movs	r3, #0
     370:	f8c4 30ac 	str.w	r3, [r4, #172]	; 0xac
     374:	4628      	mov	r0, r5
     376:	bd38      	pop	{r3, r4, r5, pc}
     378:	460b      	mov	r3, r1
     37a:	f8d0 20ac 	ldr.w	r2, [r0, #172]	; 0xac
     37e:	f8d0 10a8 	ldr.w	r1, [r0, #168]	; 0xa8
     382:	f7ff ffc5 	bl	310 <TextLCD::character(int, int, int)>
     386:	f8d4 20a8 	ldr.w	r2, [r4, #168]	; 0xa8
     38a:	4620      	mov	r0, r4
     38c:	3201      	adds	r2, #1
     38e:	f8c4 20a8 	str.w	r2, [r4, #168]	; 0xa8
     392:	f7ff ffcc 	bl	32e <TextLCD::columns()>
     396:	4282      	cmp	r2, r0
     398:	dbec      	blt.n	374 <TextLCD::_putc(int)+0x28>
     39a:	2300      	movs	r3, #0
     39c:	f8d4 20ac 	ldr.w	r2, [r4, #172]	; 0xac
     3a0:	f8c4 30a8 	str.w	r3, [r4, #168]	; 0xa8
     3a4:	3201      	adds	r2, #1
     3a6:	f8c4 20ac 	str.w	r2, [r4, #172]	; 0xac
     3aa:	4620      	mov	r0, r4
     3ac:	e7db      	b.n	366 <TextLCD::_putc(int)+0x1a>
	...

000003b0 <TextLCD::~TextLCD()>:
     3b0:	b510      	push	{r4, lr}
     3b2:	4604      	mov	r4, r0
     3b4:	4b04      	ldr	r3, [pc, #16]	; (3c8 <TextLCD::~TextLCD()+0x18>)
     3b6:	f840 3b44 	str.w	r3, [r0], #68
     3ba:	f002 fd3b 	bl	2e34 <mbed::BusOut::~BusOut()>
     3be:	4620      	mov	r0, r4
     3c0:	f002 fc56 	bl	2c70 <mbed::Stream::~Stream()>
     3c4:	4620      	mov	r0, r4
     3c6:	bd10      	pop	{r4, pc}
     3c8:	000081dc 	.word	0x000081dc

000003cc <TextLCD::~TextLCD()>:
     3cc:	b510      	push	{r4, lr}
     3ce:	4604      	mov	r4, r0
     3d0:	f7ff ffee 	bl	3b0 <TextLCD::~TextLCD()>
     3d4:	4620      	mov	r0, r4
     3d6:	f003 f958 	bl	368a <operator delete(void*)>
     3da:	4620      	mov	r0, r4
     3dc:	bd10      	pop	{r4, pc}

000003de <mbed::I2C::~I2C()>:
     3de:	4770      	bx	lr

000003e0 <mbed::SerialBase::~SerialBase()>:
     3e0:	b570      	push	{r4, r5, r6, lr}
     3e2:	4605      	mov	r5, r0
     3e4:	4b09      	ldr	r3, [pc, #36]	; (40c <mbed::SerialBase::~SerialBase()+0x2c>)
     3e6:	4606      	mov	r6, r0
     3e8:	f845 3b0c 	str.w	r3, [r5], #12
     3ec:	b15d      	cbz	r5, 406 <mbed::SerialBase::~SerialBase()+0x26>
     3ee:	f100 042c 	add.w	r4, r0, #44	; 0x2c
     3f2:	42ac      	cmp	r4, r5
     3f4:	d007      	beq.n	406 <mbed::SerialBase::~SerialBase()+0x26>
     3f6:	3c10      	subs	r4, #16
     3f8:	68e3      	ldr	r3, [r4, #12]
     3fa:	2b00      	cmp	r3, #0
     3fc:	d0f9      	beq.n	3f2 <mbed::SerialBase::~SerialBase()+0x12>
     3fe:	689b      	ldr	r3, [r3, #8]
     400:	4620      	mov	r0, r4
     402:	4798      	blx	r3
     404:	e7f5      	b.n	3f2 <mbed::SerialBase::~SerialBase()+0x12>
     406:	4630      	mov	r0, r6
     408:	bd70      	pop	{r4, r5, r6, pc}
     40a:	bf00      	nop
     40c:	00008684 	.word	0x00008684

00000410 <mbed::Serial::~Serial()>:
     410:	b510      	push	{r4, lr}
     412:	4604      	mov	r4, r0
     414:	4b08      	ldr	r3, [pc, #32]	; (438 <mbed::Serial::~Serial()+0x28>)
     416:	3044      	adds	r0, #68	; 0x44
     418:	f840 3c44 	str.w	r3, [r0, #-68]
     41c:	3320      	adds	r3, #32
     41e:	f840 3c14 	str.w	r3, [r0, #-20]
     422:	f003 fa37 	bl	3894 <rtos::Mutex::~Mutex()>
     426:	f104 0030 	add.w	r0, r4, #48	; 0x30
     42a:	f002 fc21 	bl	2c70 <mbed::Stream::~Stream()>
     42e:	4620      	mov	r0, r4
     430:	f7ff ffd6 	bl	3e0 <mbed::SerialBase::~SerialBase()>
     434:	4620      	mov	r0, r4
     436:	bd10      	pop	{r4, pc}
     438:	00008528 	.word	0x00008528

0000043c <non-virtual thunk to mbed::Serial::~Serial()>:
     43c:	f1a0 0030 	sub.w	r0, r0, #48	; 0x30
     440:	e7e6      	b.n	410 <mbed::Serial::~Serial()>
     442:	bf00      	nop

00000444 <mbed::SerialBase::~SerialBase()>:
     444:	b510      	push	{r4, lr}
     446:	4604      	mov	r4, r0
     448:	f7ff ffca 	bl	3e0 <mbed::SerialBase::~SerialBase()>
     44c:	4620      	mov	r0, r4
     44e:	f003 f91c 	bl	368a <operator delete(void*)>
     452:	4620      	mov	r0, r4
     454:	bd10      	pop	{r4, pc}

00000456 <mbed::I2C::~I2C()>:
     456:	b510      	push	{r4, lr}
     458:	4604      	mov	r4, r0
     45a:	f003 f916 	bl	368a <operator delete(void*)>
     45e:	4620      	mov	r0, r4
     460:	bd10      	pop	{r4, pc}
	...

00000464 <printAccAndTempToLCD(float, float, float, float)>:
     464:	e92d 43f7 	stmdb	sp!, {r0, r1, r2, r4, r5, r6, r7, r8, r9, lr}
     468:	4680      	mov	r8, r0
     46a:	4c1b      	ldr	r4, [pc, #108]	; (4d8 <printAccAndTempToLCD(float, float, float, float)+0x74>)
     46c:	4616      	mov	r6, r2
     46e:	4620      	mov	r0, r4
     470:	461d      	mov	r5, r3
     472:	460f      	mov	r7, r1
     474:	f7ff fea4 	bl	1c0 <TextLCD::cls()>
     478:	4640      	mov	r0, r8
     47a:	f003 fc2d 	bl	3cd8 <__aeabi_f2d>
     47e:	4680      	mov	r8, r0
     480:	4638      	mov	r0, r7
     482:	4689      	mov	r9, r1
     484:	f003 fc28 	bl	3cd8 <__aeabi_f2d>
     488:	464b      	mov	r3, r9
     48a:	e9cd 0100 	strd	r0, r1, [sp]
     48e:	4642      	mov	r2, r8
     490:	4912      	ldr	r1, [pc, #72]	; (4dc <printAccAndTempToLCD(float, float, float, float)+0x78>)
     492:	4620      	mov	r0, r4
     494:	f002 fbfe 	bl	2c94 <mbed::Stream::printf(char const*, ...)>
     498:	2201      	movs	r2, #1
     49a:	4620      	mov	r0, r4
     49c:	2100      	movs	r1, #0
     49e:	f7ff fe59 	bl	154 <TextLCD::locate(int, int)>
     4a2:	4630      	mov	r0, r6
     4a4:	f003 fc18 	bl	3cd8 <__aeabi_f2d>
     4a8:	460b      	mov	r3, r1
     4aa:	4602      	mov	r2, r0
     4ac:	490c      	ldr	r1, [pc, #48]	; (4e0 <printAccAndTempToLCD(float, float, float, float)+0x7c>)
     4ae:	4620      	mov	r0, r4
     4b0:	f002 fbf0 	bl	2c94 <mbed::Stream::printf(char const*, ...)>
     4b4:	2201      	movs	r2, #1
     4b6:	4620      	mov	r0, r4
     4b8:	210a      	movs	r1, #10
     4ba:	f7ff fe4b 	bl	154 <TextLCD::locate(int, int)>
     4be:	4628      	mov	r0, r5
     4c0:	f003 fc0a 	bl	3cd8 <__aeabi_f2d>
     4c4:	4602      	mov	r2, r0
     4c6:	460b      	mov	r3, r1
     4c8:	4620      	mov	r0, r4
     4ca:	4906      	ldr	r1, [pc, #24]	; (4e4 <printAccAndTempToLCD(float, float, float, float)+0x80>)
     4cc:	b003      	add	sp, #12
     4ce:	e8bd 43f0 	ldmia.w	sp!, {r4, r5, r6, r7, r8, r9, lr}
     4d2:	f002 bbdf 	b.w	2c94 <mbed::Stream::printf(char const*, ...)>
     4d6:	bf00      	nop
     4d8:	10000300 	.word	0x10000300
     4dc:	00008224 	.word	0x00008224
     4e0:	00008236 	.word	0x00008236
     4e4:	0000823f 	.word	0x0000823f

000004e8 <main>:
     4e8:	e92d 4880 	stmdb	sp!, {r7, r11, lr}
     4ec:	f44f 5116 	mov.w	r1, #9600	; 0x2580
     4f0:	b08f      	sub	sp, #60	; 0x3c
     4f2:	4865      	ldr	r0, [pc, #404]	; (688 <main+0x1a0>)
     4f4:	f002 fe46 	bl	3184 <mbed::SerialBase::baud(int)>
     4f8:	4964      	ldr	r1, [pc, #400]	; (68c <main+0x1a4>)
     4fa:	4865      	ldr	r0, [pc, #404]	; (690 <main+0x1a8>)
     4fc:	f002 fbca 	bl	2c94 <mbed::Stream::printf(char const*, ...)>
     500:	4864      	ldr	r0, [pc, #400]	; (694 <main+0x1ac>)
     502:	f7ff fe5d 	bl	1c0 <TextLCD::cls()>
     506:	2331      	movs	r3, #49	; 0x31
     508:	4c63      	ldr	r4, [pc, #396]	; (698 <main+0x1b0>)
     50a:	2500      	movs	r5, #0
     50c:	7023      	strb	r3, [r4, #0]
     50e:	230b      	movs	r3, #11
     510:	4622      	mov	r2, r4
     512:	7063      	strb	r3, [r4, #1]
     514:	21a6      	movs	r1, #166	; 0xa6
     516:	2302      	movs	r3, #2
     518:	9500      	str	r5, [sp, #0]
     51a:	4860      	ldr	r0, [pc, #384]	; (69c <main+0x1b4>)
     51c:	f002 fc4a 	bl	2db4 <mbed::I2C::write(int, char const*, int, bool)>
     520:	232d      	movs	r3, #45	; 0x2d
     522:	7023      	strb	r3, [r4, #0]
     524:	2308      	movs	r3, #8
     526:	4622      	mov	r2, r4
     528:	7063      	strb	r3, [r4, #1]
     52a:	21a6      	movs	r1, #166	; 0xa6
     52c:	2302      	movs	r3, #2
     52e:	9500      	str	r5, [sp, #0]
     530:	485a      	ldr	r0, [pc, #360]	; (69c <main+0x1b4>)
     532:	f002 fc3f 	bl	2db4 <mbed::I2C::write(int, char const*, int, bool)>
     536:	2301      	movs	r3, #1
     538:	7023      	strb	r3, [r4, #0]
     53a:	2360      	movs	r3, #96	; 0x60
     53c:	7063      	strb	r3, [r4, #1]
     53e:	23a0      	movs	r3, #160	; 0xa0
     540:	4622      	mov	r2, r4
     542:	70a3      	strb	r3, [r4, #2]
     544:	2190      	movs	r1, #144	; 0x90
     546:	9500      	str	r5, [sp, #0]
     548:	2303      	movs	r3, #3
     54a:	4854      	ldr	r0, [pc, #336]	; (69c <main+0x1b4>)
     54c:	f002 fc32 	bl	2db4 <mbed::I2C::write(int, char const*, int, bool)>
     550:	46a2      	mov	r10, r4
     552:	f8df 8148 	ldr.w	r8, [pc, #328]	; 69c <main+0x1b4>
     556:	f8df 9174 	ldr.w	r9, [pc, #372]	; 6cc <main+0x1e4>
     55a:	f44f 70fa 	mov.w	r0, #500	; 0x1f4
     55e:	f002 ff25 	bl	33ac <wait_ms>
     562:	2700      	movs	r7, #0
     564:	2332      	movs	r3, #50	; 0x32
     566:	4e4e      	ldr	r6, [pc, #312]	; (6a0 <main+0x1b8>)
     568:	f88a 3000 	strb.w	r3, [r10]
     56c:	4a4a      	ldr	r2, [pc, #296]	; (698 <main+0x1b0>)
     56e:	9700      	str	r7, [sp, #0]
     570:	2301      	movs	r3, #1
     572:	21a6      	movs	r1, #166	; 0xa6
     574:	4640      	mov	r0, r8
     576:	f002 fc1d 	bl	2db4 <mbed::I2C::write(int, char const*, int, bool)>
     57a:	4632      	mov	r2, r6
     57c:	21a6      	movs	r1, #166	; 0xa6
     57e:	9700      	str	r7, [sp, #0]
     580:	2306      	movs	r3, #6
     582:	4640      	mov	r0, r8
     584:	f002 fc36 	bl	2df4 <mbed::I2C::read(int, char*, int, bool)>
     588:	78f2      	ldrb	r2, [r6, #3]
     58a:	78b5      	ldrb	r5, [r6, #2]
     58c:	7873      	ldrb	r3, [r6, #1]
     58e:	7834      	ldrb	r4, [r6, #0]
     590:	ea45 2502 	orr.w	r5, r5, r2, lsl #8
     594:	7972      	ldrb	r2, [r6, #5]
     596:	7936      	ldrb	r6, [r6, #4]
     598:	ea44 2403 	orr.w	r4, r4, r3, lsl #8
     59c:	ea46 2602 	orr.w	r6, r6, r2, lsl #8
     5a0:	4b40      	ldr	r3, [pc, #256]	; (6a4 <main+0x1bc>)
     5a2:	b224      	sxth	r4, r4
     5a4:	b22d      	sxth	r5, r5
     5a6:	b236      	sxth	r6, r6
     5a8:	801c      	strh	r4, [r3, #0]
     5aa:	805d      	strh	r5, [r3, #2]
     5ac:	809e      	strh	r6, [r3, #4]
     5ae:	4620      	mov	r0, r4
     5b0:	f003 ff2a 	bl	4408 <__aeabi_i2f>
     5b4:	4649      	mov	r1, r9
     5b6:	f003 ff7b 	bl	44b0 <__aeabi_fmul>
     5ba:	4b3b      	ldr	r3, [pc, #236]	; (6a8 <main+0x1c0>)
     5bc:	900a      	str	r0, [sp, #40]	; 0x28
     5be:	6018      	str	r0, [r3, #0]
     5c0:	4628      	mov	r0, r5
     5c2:	f003 ff21 	bl	4408 <__aeabi_i2f>
     5c6:	4649      	mov	r1, r9
     5c8:	f003 ff72 	bl	44b0 <__aeabi_fmul>
     5cc:	4b37      	ldr	r3, [pc, #220]	; (6ac <main+0x1c4>)
     5ce:	4683      	mov	r11, r0
     5d0:	6018      	str	r0, [r3, #0]
     5d2:	4630      	mov	r0, r6
     5d4:	f003 ff18 	bl	4408 <__aeabi_i2f>
     5d8:	4649      	mov	r1, r9
     5da:	f003 ff69 	bl	44b0 <__aeabi_fmul>
     5de:	4a34      	ldr	r2, [pc, #208]	; (6b0 <main+0x1c8>)
     5e0:	900d      	str	r0, [sp, #52]	; 0x34
     5e2:	6010      	str	r0, [r2, #0]
     5e4:	9a0a      	ldr	r2, [sp, #40]	; 0x28
     5e6:	4610      	mov	r0, r2
     5e8:	f003 fb76 	bl	3cd8 <__aeabi_f2d>
     5ec:	9b0d      	ldr	r3, [sp, #52]	; 0x34
     5ee:	e9cd 010a 	strd	r0, r1, [sp, #40]	; 0x28
     5f2:	4618      	mov	r0, r3
     5f4:	9608      	str	r6, [sp, #32]
     5f6:	f003 fb6f 	bl	3cd8 <__aeabi_f2d>
     5fa:	e9cd 0106 	strd	r0, r1, [sp, #24]
     5fe:	4658      	mov	r0, r11
     600:	9504      	str	r5, [sp, #16]
     602:	f003 fb69 	bl	3cd8 <__aeabi_f2d>
     606:	e9dd 230a 	ldrd	r2, r3, [sp, #40]	; 0x28
     60a:	e9cd 0102 	strd	r0, r1, [sp, #8]
     60e:	9400      	str	r4, [sp, #0]
     610:	4928      	ldr	r1, [pc, #160]	; (6b4 <main+0x1cc>)
     612:	4c29      	ldr	r4, [pc, #164]	; (6b8 <main+0x1d0>)
     614:	481e      	ldr	r0, [pc, #120]	; (690 <main+0x1a8>)
     616:	f002 fb3d 	bl	2c94 <mbed::Stream::printf(char const*, ...)>
     61a:	f88a 7000 	strb.w	r7, [r10]
     61e:	2301      	movs	r3, #1
     620:	9700      	str	r7, [sp, #0]
     622:	4a1d      	ldr	r2, [pc, #116]	; (698 <main+0x1b0>)
     624:	2190      	movs	r1, #144	; 0x90
     626:	4640      	mov	r0, r8
     628:	f002 fbc4 	bl	2db4 <mbed::I2C::write(int, char const*, int, bool)>
     62c:	4622      	mov	r2, r4
     62e:	2190      	movs	r1, #144	; 0x90
     630:	9700      	str	r7, [sp, #0]
     632:	2302      	movs	r3, #2
     634:	4640      	mov	r0, r8
     636:	f002 fbdd 	bl	2df4 <mbed::I2C::read(int, char*, int, bool)>
     63a:	7823      	ldrb	r3, [r4, #0]
     63c:	7860      	ldrb	r0, [r4, #1]
     63e:	eb00 2003 	add.w	r0, r0, r3, lsl #8
     642:	1100      	asrs	r0, r0, #4
     644:	f003 fee0 	bl	4408 <__aeabi_i2f>
     648:	f04f 5176 	mov.w	r1, #1031798784	; 0x3d800000
     64c:	f003 ff30 	bl	44b0 <__aeabi_fmul>
     650:	f003 fb42 	bl	3cd8 <__aeabi_f2d>
     654:	2200      	movs	r2, #0
     656:	4b19      	ldr	r3, [pc, #100]	; (6bc <main+0x1d4>)
     658:	f003 fb92 	bl	3d80 <__aeabi_dmul>
     65c:	2200      	movs	r2, #0
     65e:	4b18      	ldr	r3, [pc, #96]	; (6c0 <main+0x1d8>)
     660:	f003 fcb8 	bl	3fd4 <__aeabi_ddiv>
     664:	2200      	movs	r2, #0
     666:	4b17      	ldr	r3, [pc, #92]	; (6c4 <main+0x1dc>)
     668:	f003 f9d8 	bl	3a1c <__adddf3>
     66c:	f003 fdc2 	bl	41f4 <__aeabi_d2f>
     670:	4a15      	ldr	r2, [pc, #84]	; (6c8 <main+0x1e0>)
     672:	4603      	mov	r3, r0
     674:	6010      	str	r0, [r2, #0]
     676:	490d      	ldr	r1, [pc, #52]	; (6ac <main+0x1c4>)
     678:	4a0d      	ldr	r2, [pc, #52]	; (6b0 <main+0x1c8>)
     67a:	480b      	ldr	r0, [pc, #44]	; (6a8 <main+0x1c0>)
     67c:	6812      	ldr	r2, [r2, #0]
     67e:	6809      	ldr	r1, [r1, #0]
     680:	6800      	ldr	r0, [r0, #0]
     682:	f7ff feef 	bl	464 <printAccAndTempToLCD(float, float, float, float)>
     686:	e768      	b.n	55a <main+0x72>
     688:	100003b0 	.word	0x100003b0
     68c:	00008245 	.word	0x00008245
     690:	100003e0 	.word	0x100003e0
     694:	10000300 	.word	0x10000300
     698:	100002f6 	.word	0x100002f6
     69c:	1000040c 	.word	0x1000040c
     6a0:	100002f0 	.word	0x100002f0
     6a4:	100002fa 	.word	0x100002fa
     6a8:	100002e4 	.word	0x100002e4
     6ac:	100002e8 	.word	0x100002e8
     6b0:	100002ec 	.word	0x100002ec
     6b4:	00008269 	.word	0x00008269
     6b8:	1000041c 	.word	0x1000041c
     6bc:	40220000 	.word	0x40220000
     6c0:	40140000 	.word	0x40140000
     6c4:	40400000 	.word	0x40400000
     6c8:	10000418 	.word	0x10000418
     6cc:	3b7f9724 	.word	0x3b7f9724

000006d0 <mbed::Serial::~Serial()>:
     6d0:	b510      	push	{r4, lr}
     6d2:	4604      	mov	r4, r0
     6d4:	f7ff fe9c 	bl	410 <mbed::Serial::~Serial()>
     6d8:	4620      	mov	r0, r4
     6da:	f002 ffd6 	bl	368a <operator delete(void*)>
     6de:	4620      	mov	r0, r4
     6e0:	bd10      	pop	{r4, pc}

000006e2 <non-virtual thunk to mbed::Serial::~Serial()>:
     6e2:	f1a0 0030 	sub.w	r0, r0, #48	; 0x30
     6e6:	e7f3      	b.n	6d0 <mbed::Serial::~Serial()>

000006e8 <_GLOBAL__sub_I_lcd>:
     6e8:	b57f      	push	{r0, r1, r2, r3, r4, r5, r6, lr}
     6ea:	2600      	movs	r6, #0
     6ec:	4b18      	ldr	r3, [pc, #96]	; (750 <_GLOBAL__sub_I_lcd+0x68>)
     6ee:	4d19      	ldr	r5, [pc, #100]	; (754 <_GLOBAL__sub_I_lcd+0x6c>)
     6f0:	9302      	str	r3, [sp, #8]
     6f2:	3301      	adds	r3, #1
     6f4:	9301      	str	r3, [sp, #4]
     6f6:	3301      	adds	r3, #1
     6f8:	4c17      	ldr	r4, [pc, #92]	; (758 <_GLOBAL__sub_I_lcd+0x70>)
     6fa:	9300      	str	r3, [sp, #0]
     6fc:	9603      	str	r6, [sp, #12]
     6fe:	3301      	adds	r3, #1
     700:	4a16      	ldr	r2, [pc, #88]	; (75c <_GLOBAL__sub_I_lcd+0x74>)
     702:	4917      	ldr	r1, [pc, #92]	; (760 <_GLOBAL__sub_I_lcd+0x78>)
     704:	4628      	mov	r0, r5
     706:	f7ff fd6b 	bl	1e0 <TextLCD::TextLCD(PinName, PinName, PinName, PinName, PinName, PinName, TextLCD::LCDType)>
     70a:	4628      	mov	r0, r5
     70c:	4d15      	ldr	r5, [pc, #84]	; (764 <_GLOBAL__sub_I_lcd+0x7c>)
     70e:	4622      	mov	r2, r4
     710:	4915      	ldr	r1, [pc, #84]	; (768 <_GLOBAL__sub_I_lcd+0x80>)
     712:	f002 ff91 	bl	3638 <__aeabi_atexit>
     716:	4a15      	ldr	r2, [pc, #84]	; (76c <_GLOBAL__sub_I_lcd+0x84>)
     718:	4915      	ldr	r1, [pc, #84]	; (770 <_GLOBAL__sub_I_lcd+0x88>)
     71a:	4628      	mov	r0, r5
     71c:	f002 fb1e 	bl	2d5c <mbed::I2C::I2C(PinName, PinName)>
     720:	4622      	mov	r2, r4
     722:	4914      	ldr	r1, [pc, #80]	; (774 <_GLOBAL__sub_I_lcd+0x8c>)
     724:	4628      	mov	r0, r5
     726:	f002 ff87 	bl	3638 <__aeabi_atexit>
     72a:	f44f 5316 	mov.w	r3, #9600	; 0x2580
     72e:	4d12      	ldr	r5, [pc, #72]	; (778 <_GLOBAL__sub_I_lcd+0x90>)
     730:	9300      	str	r3, [sp, #0]
     732:	4a12      	ldr	r2, [pc, #72]	; (77c <_GLOBAL__sub_I_lcd+0x94>)
     734:	4633      	mov	r3, r6
     736:	4912      	ldr	r1, [pc, #72]	; (780 <_GLOBAL__sub_I_lcd+0x98>)
     738:	4628      	mov	r0, r5
     73a:	f002 fa27 	bl	2b8c <mbed::Serial::Serial(PinName, PinName, char const*, int)>
     73e:	4622      	mov	r2, r4
     740:	4628      	mov	r0, r5
     742:	4910      	ldr	r1, [pc, #64]	; (784 <_GLOBAL__sub_I_lcd+0x9c>)
     744:	b004      	add	sp, #16
     746:	e8bd 4070 	ldmia.w	sp!, {r4, r5, r6, lr}
     74a:	f002 bf75 	b.w	3638 <__aeabi_atexit>
     74e:	bf00      	nop
     750:	2009c042 	.word	0x2009c042
     754:	10000300 	.word	0x10000300
     758:	100000c8 	.word	0x100000c8
     75c:	2009c040 	.word	0x2009c040
     760:	2009c041 	.word	0x2009c041
     764:	1000040c 	.word	0x1000040c
     768:	000003b1 	.word	0x000003b1
     76c:	2009c001 	.word	0x2009c001
     770:	2009c000 	.word	0x2009c000
     774:	000003df 	.word	0x000003df
     778:	100003b0 	.word	0x100003b0
     77c:	2009c003 	.word	0x2009c003
     780:	2009c002 	.word	0x2009c002
     784:	00000411 	.word	0x00000411

00000788 <_start>:
     788:	4807      	ldr	r0, [pc, #28]	; (7a8 <_start+0x20>)
     78a:	4a08      	ldr	r2, [pc, #32]	; (7ac <_start+0x24>)
     78c:	b508      	push	{r3, lr}
     78e:	1a12      	subs	r2, r2, r0
     790:	2100      	movs	r1, #0
     792:	f004 fb98 	bl	4ec6 <memset>
     796:	f002 ff08 	bl	35aa <software_init_hook>
     79a:	f004 fac9 	bl	4d30 <__libc_init_array>
     79e:	f002 ff0b 	bl	35b8 <__wrap_main>
     7a2:	f002 ff4b 	bl	363c <__wrap_exit>
     7a6:	bf00      	nop
     7a8:	100002c8 	.word	0x100002c8
     7ac:	10002174 	.word	0x10002174

000007b0 <__wrap__isatty>:
     7b0:	2802      	cmp	r0, #2
     7b2:	dd01      	ble.n	7b8 <__wrap__isatty+0x8>
     7b4:	f002 beac 	b.w	3510 <_isatty>
     7b8:	2001      	movs	r0, #1
     7ba:	4770      	bx	lr

000007bc <abort>:
     7bc:	b508      	push	{r3, lr}
     7be:	2001      	movs	r0, #1
     7c0:	f002 ff3c 	bl	363c <__wrap_exit>

000007c4 <__cxa_pure_virtual>:
     7c4:	b508      	push	{r3, lr}
     7c6:	f7ff fff9 	bl	7bc <abort>

000007ca <_gpio_init_in>:
     7ca:	b570      	push	{r4, r5, r6, lr}
     7cc:	460e      	mov	r6, r1
     7ce:	4604      	mov	r4, r0
     7d0:	4615      	mov	r5, r2
     7d2:	f001 fc23 	bl	201c <gpio_init>
     7d6:	3601      	adds	r6, #1
     7d8:	d009      	beq.n	7ee <_gpio_init_in+0x24>
     7da:	4620      	mov	r0, r4
     7dc:	2100      	movs	r1, #0
     7de:	f001 fc37 	bl	2050 <gpio_dir>
     7e2:	4629      	mov	r1, r5
     7e4:	4620      	mov	r0, r4
     7e6:	e8bd 4070 	ldmia.w	sp!, {r4, r5, r6, lr}
     7ea:	f001 bc2e 	b.w	204a <gpio_mode>
     7ee:	bd70      	pop	{r4, r5, r6, pc}

000007f0 <_gpio_init_out.part.1>:
     7f0:	b538      	push	{r3, r4, r5, lr}
     7f2:	4604      	mov	r4, r0
     7f4:	460d      	mov	r5, r1
     7f6:	6843      	ldr	r3, [r0, #4]
     7f8:	b15a      	cbz	r2, 812 <Heap_Size+0x12>
     7fa:	68c2      	ldr	r2, [r0, #12]
     7fc:	4620      	mov	r0, r4
     7fe:	6013      	str	r3, [r2, #0]
     800:	2101      	movs	r1, #1
     802:	f001 fc25 	bl	2050 <gpio_dir>
     806:	4629      	mov	r1, r5
     808:	4620      	mov	r0, r4
     80a:	e8bd 4038 	ldmia.w	sp!, {r3, r4, r5, lr}
     80e:	f001 bc1c 	b.w	204a <gpio_mode>
     812:	6902      	ldr	r2, [r0, #16]
     814:	e7f2      	b.n	7fc <_gpio_init_out.part.1+0xc>

00000816 <gpio_init_in>:
     816:	2203      	movs	r2, #3
     818:	f7ff bfd7 	b.w	7ca <_gpio_init_in>

0000081c <gpio_init_out_ex>:
     81c:	b570      	push	{r4, r5, r6, lr}
     81e:	460e      	mov	r6, r1
     820:	4604      	mov	r4, r0
     822:	4615      	mov	r5, r2
     824:	f001 fbfa 	bl	201c <gpio_init>
     828:	3601      	adds	r6, #1
     82a:	d006      	beq.n	83a <gpio_init_out_ex+0x1e>
     82c:	462a      	mov	r2, r5
     82e:	4620      	mov	r0, r4
     830:	e8bd 4070 	ldmia.w	sp!, {r4, r5, r6, lr}
     834:	2102      	movs	r1, #2
     836:	f7ff bfdb 	b.w	7f0 <_gpio_init_out.part.1>
     83a:	bd70      	pop	{r4, r5, r6, pc}

0000083c <gpio_init_out>:
     83c:	2200      	movs	r2, #0
     83e:	f7ff bfed 	b.w	81c <gpio_init_out_ex>
	...

00000844 <us_ticker_irq_handler>:
     844:	4801      	ldr	r0, [pc, #4]	; (84c <us_ticker_irq_handler+0x8>)
     846:	f000 b803 	b.w	850 <ticker_irq_handler>
     84a:	bf00      	nop
     84c:	000082b4 	.word	0x000082b4

00000850 <ticker_irq_handler>:
     850:	6803      	ldr	r3, [r0, #0]
     852:	b570      	push	{r4, r5, r6, lr}
     854:	68db      	ldr	r3, [r3, #12]
     856:	4604      	mov	r4, r0
     858:	4798      	blx	r3
     85a:	6863      	ldr	r3, [r4, #4]
     85c:	685a      	ldr	r2, [r3, #4]
     85e:	6823      	ldr	r3, [r4, #0]
     860:	b91a      	cbnz	r2, 86a <ticker_irq_handler+0x1a>
     862:	689b      	ldr	r3, [r3, #8]
     864:	e8bd 4070 	ldmia.w	sp!, {r4, r5, r6, lr}
     868:	4718      	bx	r3
     86a:	685b      	ldr	r3, [r3, #4]
     86c:	6815      	ldr	r5, [r2, #0]
     86e:	4798      	blx	r3
     870:	6863      	ldr	r3, [r4, #4]
     872:	1a28      	subs	r0, r5, r0
     874:	2800      	cmp	r0, #0
     876:	685a      	ldr	r2, [r3, #4]
     878:	dc07      	bgt.n	88a <ticker_irq_handler+0x3a>
     87a:	6891      	ldr	r1, [r2, #8]
     87c:	6059      	str	r1, [r3, #4]
     87e:	681b      	ldr	r3, [r3, #0]
     880:	2b00      	cmp	r3, #0
     882:	d0ea      	beq.n	85a <ticker_irq_handler+0xa>
     884:	6850      	ldr	r0, [r2, #4]
     886:	4798      	blx	r3
     888:	e7e7      	b.n	85a <ticker_irq_handler+0xa>
     88a:	6823      	ldr	r3, [r4, #0]
     88c:	6810      	ldr	r0, [r2, #0]
     88e:	691b      	ldr	r3, [r3, #16]
     890:	e8bd 4070 	ldmia.w	sp!, {r4, r5, r6, lr}
     894:	4718      	bx	r3
	...

00000898 <pinmap_pinout>:
     898:	b510      	push	{r4, lr}
     89a:	4604      	mov	r4, r0
     89c:	3001      	adds	r0, #1
     89e:	d10d      	bne.n	8bc <pinmap_pinout+0x24>
     8a0:	bd10      	pop	{r4, pc}
     8a2:	429c      	cmp	r4, r3
     8a4:	d109      	bne.n	8ba <pinmap_pinout+0x22>
     8a6:	4620      	mov	r0, r4
     8a8:	6889      	ldr	r1, [r1, #8]
     8aa:	f001 fd7a 	bl	23a2 <pin_function>
     8ae:	4620      	mov	r0, r4
     8b0:	e8bd 4010 	ldmia.w	sp!, {r4, lr}
     8b4:	2102      	movs	r1, #2
     8b6:	f001 bd8d 	b.w	23d4 <pin_mode>
     8ba:	310c      	adds	r1, #12
     8bc:	680b      	ldr	r3, [r1, #0]
     8be:	1c5a      	adds	r2, r3, #1
     8c0:	d1ef      	bne.n	8a2 <pinmap_pinout+0xa>
     8c2:	4802      	ldr	r0, [pc, #8]	; (8cc <pinmap_pinout+0x34>)
     8c4:	e8bd 4010 	ldmia.w	sp!, {r4, lr}
     8c8:	f000 b8ba 	b.w	a40 <error>
     8cc:	00008301 	.word	0x00008301

000008d0 <pinmap_merge>:
     8d0:	4288      	cmp	r0, r1
     8d2:	b508      	push	{r3, lr}
     8d4:	d008      	beq.n	8e8 <pinmap_merge+0x18>
     8d6:	1c43      	adds	r3, r0, #1
     8d8:	d006      	beq.n	8e8 <pinmap_merge+0x18>
     8da:	3101      	adds	r1, #1
     8dc:	d006      	beq.n	8ec <pinmap_merge+0x1c>
     8de:	4804      	ldr	r0, [pc, #16]	; (8f0 <pinmap_merge+0x20>)
     8e0:	f000 f8ae 	bl	a40 <error>
     8e4:	f04f 31ff 	mov.w	r1, #4294967295	; 0xffffffff
     8e8:	4608      	mov	r0, r1
     8ea:	bd08      	pop	{r3, pc}
     8ec:	4601      	mov	r1, r0
     8ee:	e7fb      	b.n	8e8 <pinmap_merge+0x18>
     8f0:	000082d0 	.word	0x000082d0

000008f4 <pinmap_find_peripheral>:
     8f4:	680b      	ldr	r3, [r1, #0]
     8f6:	1c5a      	adds	r2, r3, #1
     8f8:	d101      	bne.n	8fe <pinmap_find_peripheral+0xa>
     8fa:	4618      	mov	r0, r3
     8fc:	4770      	bx	lr
     8fe:	4283      	cmp	r3, r0
     900:	d101      	bne.n	906 <pinmap_find_peripheral+0x12>
     902:	6848      	ldr	r0, [r1, #4]
     904:	4770      	bx	lr
     906:	310c      	adds	r1, #12
     908:	e7f4      	b.n	8f4 <pinmap_find_peripheral>
	...

0000090c <pinmap_peripheral>:
     90c:	1c42      	adds	r2, r0, #1
     90e:	b510      	push	{r4, lr}
     910:	4604      	mov	r4, r0
     912:	d007      	beq.n	924 <pinmap_peripheral+0x18>
     914:	f7ff ffee 	bl	8f4 <pinmap_find_peripheral>
     918:	1c43      	adds	r3, r0, #1
     91a:	4604      	mov	r4, r0
     91c:	d102      	bne.n	924 <pinmap_peripheral+0x18>
     91e:	4802      	ldr	r0, [pc, #8]	; (928 <pinmap_peripheral+0x1c>)
     920:	f000 f88e 	bl	a40 <error>
     924:	4620      	mov	r0, r4
     926:	bd10      	pop	{r4, pc}
     928:	000082e1 	.word	0x000082e1

0000092c <mbed_interface_connected>:
     92c:	f000 b838 	b.w	9a0 <semihost_connected>

00000930 <mbed_interface_disconnect>:
     930:	b508      	push	{r3, lr}
     932:	f000 f835 	bl	9a0 <semihost_connected>
     936:	b138      	cbz	r0, 948 <mbed_interface_disconnect+0x18>
     938:	f000 f83a 	bl	9b0 <semihost_disabledebug>
     93c:	b930      	cbnz	r0, 94c <mbed_interface_disconnect+0x1c>
     93e:	f000 f82f 	bl	9a0 <semihost_connected>
     942:	2800      	cmp	r0, #0
     944:	d1fb      	bne.n	93e <mbed_interface_disconnect+0xe>
     946:	bd08      	pop	{r3, pc}
     948:	f04f 30ff 	mov.w	r0, #4294967295	; 0xffffffff
     94c:	bd08      	pop	{r3, pc}

0000094e <core_util_are_interrupts_enabled>:
     94e:	f3ef 8010 	mrs	r0, PRIMASK
     952:	43c0      	mvns	r0, r0
     954:	f000 0001 	and.w	r0, r0, #1
     958:	4770      	bx	lr
	...

0000095c <core_util_critical_section_enter>:
     95c:	b508      	push	{r3, lr}
     95e:	f7ff fff6 	bl	94e <core_util_are_interrupts_enabled>
     962:	b672      	cpsid	i
     964:	4b06      	ldr	r3, [pc, #24]	; (980 <core_util_critical_section_enter+0x24>)
     966:	681a      	ldr	r2, [r3, #0]
     968:	b922      	cbnz	r2, 974 <core_util_critical_section_enter+0x18>
     96a:	f080 0001 	eor.w	r0, r0, #1
     96e:	4a05      	ldr	r2, [pc, #20]	; (984 <core_util_critical_section_enter+0x28>)
     970:	b2c0      	uxtb	r0, r0
     972:	7010      	strb	r0, [r2, #0]
     974:	681a      	ldr	r2, [r3, #0]
     976:	681a      	ldr	r2, [r3, #0]
     978:	3201      	adds	r2, #1
     97a:	601a      	str	r2, [r3, #0]
     97c:	bd08      	pop	{r3, pc}
     97e:	bf00      	nop
     980:	1000042c 	.word	0x1000042c
     984:	10000428 	.word	0x10000428

00000988 <semihost_exit>:
     988:	b530      	push	{r4, r5, lr}
     98a:	b085      	sub	sp, #20
     98c:	466d      	mov	r5, sp
     98e:	2418      	movs	r4, #24
     990:	4620      	mov	r0, r4
     992:	4629      	mov	r1, r5
     994:	beab      	bkpt	0x00ab
     996:	4604      	mov	r4, r0
     998:	4620      	mov	r0, r4
     99a:	b005      	add	sp, #20
     99c:	bd30      	pop	{r4, r5, pc}
	...

000009a0 <semihost_connected>:
     9a0:	4b02      	ldr	r3, [pc, #8]	; (9ac <semihost_connected+0xc>)
     9a2:	6818      	ldr	r0, [r3, #0]
     9a4:	f000 0001 	and.w	r0, r0, #1
     9a8:	4770      	bx	lr
     9aa:	bf00      	nop
     9ac:	e000edf0 	.word	0xe000edf0

000009b0 <semihost_disabledebug>:
     9b0:	b537      	push	{r0, r1, r2, r4, r5, lr}
     9b2:	f240 1405 	movw	r4, #261	; 0x105
     9b6:	ad01      	add	r5, sp, #4
     9b8:	4620      	mov	r0, r4
     9ba:	4629      	mov	r1, r5
     9bc:	beab      	bkpt	0x00ab
     9be:	4604      	mov	r4, r0
     9c0:	4620      	mov	r0, r4
     9c2:	b003      	add	sp, #12
     9c4:	bd30      	pop	{r4, r5, pc}
	...

000009c8 <mbed_die>:
     9c8:	b500      	push	{lr}
     9ca:	b099      	sub	sp, #100	; 0x64
     9cc:	f7ff ffc6 	bl	95c <core_util_critical_section_enter>
     9d0:	4917      	ldr	r1, [pc, #92]	; (a30 <mbed_die+0x68>)
     9d2:	4668      	mov	r0, sp
     9d4:	f7ff ff32 	bl	83c <gpio_init_out>
     9d8:	4916      	ldr	r1, [pc, #88]	; (a34 <mbed_die+0x6c>)
     9da:	a806      	add	r0, sp, #24
     9dc:	f7ff ff2e 	bl	83c <gpio_init_out>
     9e0:	4915      	ldr	r1, [pc, #84]	; (a38 <mbed_die+0x70>)
     9e2:	a80c      	add	r0, sp, #48	; 0x30
     9e4:	f7ff ff2a 	bl	83c <gpio_init_out>
     9e8:	4914      	ldr	r1, [pc, #80]	; (a3c <mbed_die+0x74>)
     9ea:	a812      	add	r0, sp, #72	; 0x48
     9ec:	f7ff ff26 	bl	83c <gpio_init_out>
     9f0:	9a01      	ldr	r2, [sp, #4]
     9f2:	9b03      	ldr	r3, [sp, #12]
     9f4:	2096      	movs	r0, #150	; 0x96
     9f6:	601a      	str	r2, [r3, #0]
     9f8:	9a07      	ldr	r2, [sp, #28]
     9fa:	9b0a      	ldr	r3, [sp, #40]	; 0x28
     9fc:	601a      	str	r2, [r3, #0]
     9fe:	9a0d      	ldr	r2, [sp, #52]	; 0x34
     a00:	9b10      	ldr	r3, [sp, #64]	; 0x40
     a02:	601a      	str	r2, [r3, #0]
     a04:	9a13      	ldr	r2, [sp, #76]	; 0x4c
     a06:	9b15      	ldr	r3, [sp, #84]	; 0x54
     a08:	601a      	str	r2, [r3, #0]
     a0a:	f002 fccf 	bl	33ac <wait_ms>
     a0e:	9a01      	ldr	r2, [sp, #4]
     a10:	9b04      	ldr	r3, [sp, #16]
     a12:	2096      	movs	r0, #150	; 0x96
     a14:	601a      	str	r2, [r3, #0]
     a16:	9a07      	ldr	r2, [sp, #28]
     a18:	9b09      	ldr	r3, [sp, #36]	; 0x24
     a1a:	601a      	str	r2, [r3, #0]
     a1c:	9a0d      	ldr	r2, [sp, #52]	; 0x34
     a1e:	9b0f      	ldr	r3, [sp, #60]	; 0x3c
     a20:	601a      	str	r2, [r3, #0]
     a22:	9a13      	ldr	r2, [sp, #76]	; 0x4c
     a24:	9b16      	ldr	r3, [sp, #88]	; 0x58
     a26:	601a      	str	r2, [r3, #0]
     a28:	f002 fcc0 	bl	33ac <wait_ms>
     a2c:	e7e0      	b.n	9f0 <mbed_die+0x28>
     a2e:	bf00      	nop
     a30:	2009c032 	.word	0x2009c032
     a34:	2009c034 	.word	0x2009c034
     a38:	2009c035 	.word	0x2009c035
     a3c:	2009c037 	.word	0x2009c037

00000a40 <error>:
     a40:	b40f      	push	{r0, r1, r2, r3}
     a42:	2001      	movs	r0, #1
     a44:	b508      	push	{r3, lr}
     a46:	f002 fdf9 	bl	363c <__wrap_exit>

00000a4a <default_idle_hook>:
     a4a:	f001 bb11 	b.w	2070 <hal_sleep>
	...

00000a50 <rtos_idle_loop>:
     a50:	b508      	push	{r3, lr}
     a52:	4c02      	ldr	r4, [pc, #8]	; (a5c <rtos_idle_loop+0xc>)
     a54:	6823      	ldr	r3, [r4, #0]
     a56:	4798      	blx	r3
     a58:	e7fc      	b.n	a54 <rtos_idle_loop+0x4>
     a5a:	bf00      	nop
     a5c:	100000cc 	.word	0x100000cc

00000a60 <pre_main>:
     a60:	b508      	push	{r3, lr}
     a62:	480b      	ldr	r0, [pc, #44]	; (a90 <pre_main+0x30>)
     a64:	f000 fe98 	bl	1798 <osMutexCreate>
     a68:	4b0a      	ldr	r3, [pc, #40]	; (a94 <pre_main+0x34>)
     a6a:	6018      	str	r0, [r3, #0]
     a6c:	480a      	ldr	r0, [pc, #40]	; (a98 <pre_main+0x38>)
     a6e:	f000 fe93 	bl	1798 <osMutexCreate>
     a72:	4b0a      	ldr	r3, [pc, #40]	; (a9c <pre_main+0x3c>)
     a74:	6018      	str	r0, [r3, #0]
     a76:	480a      	ldr	r0, [pc, #40]	; (aa0 <pre_main+0x40>)
     a78:	f000 fe8e 	bl	1798 <osMutexCreate>
     a7c:	4b09      	ldr	r3, [pc, #36]	; (aa4 <pre_main+0x44>)
     a7e:	6018      	str	r0, [r3, #0]
     a80:	f004 f956 	bl	4d30 <__libc_init_array>
     a84:	e8bd 4008 	ldmia.w	sp!, {r3, lr}
     a88:	2100      	movs	r1, #0
     a8a:	4608      	mov	r0, r1
     a8c:	f002 bd94 	b.w	35b8 <__wrap_main>
     a90:	00008360 	.word	0x00008360
     a94:	100019dc 	.word	0x100019dc
     a98:	0000835c 	.word	0x0000835c
     a9c:	10000438 	.word	0x10000438
     aa0:	00008358 	.word	0x00008358
     aa4:	10000430 	.word	0x10000430

00000aa8 <os_idle_demon>:
     aa8:	f7ff bfd2 	b.w	a50 <rtos_idle_loop>

00000aac <os_error>:
     aac:	b510      	push	{r4, lr}
     aae:	4604      	mov	r4, r0
     ab0:	f000 fdd2 	bl	1658 <svcThreadGetId>
     ab4:	4621      	mov	r1, r4
     ab6:	e8bd 4010 	ldmia.w	sp!, {r4, lr}
     aba:	4602      	mov	r2, r0
     abc:	4801      	ldr	r0, [pc, #4]	; (ac4 <os_error+0x18>)
     abe:	f7ff bfbf 	b.w	a40 <error>
     ac2:	bf00      	nop
     ac4:	00008320 	.word	0x00008320

00000ac8 <sysThreadTerminate>:
     ac8:	f002 bebc 	b.w	3844 <thread_terminate_hook>

00000acc <set_stack_heap>:
     acc:	4a0b      	ldr	r2, [pc, #44]	; (afc <set_stack_heap+0x30>)
     ace:	b4f0      	push	{r4, r5, r6, r7}
     ad0:	f1c2 5380 	rsb	r3, r2, #268435456	; 0x10000000
     ad4:	f503 4300 	add.w	r3, r3, #32768	; 0x8000
     ad8:	f5b3 6f80 	cmp.w	r3, #1024	; 0x400
     adc:	4619      	mov	r1, r3
     ade:	bf28      	it	cs
     ae0:	f44f 6180 	movcs.w	r1, #1024	; 0x400
     ae4:	4f06      	ldr	r7, [pc, #24]	; (b00 <set_stack_heap+0x34>)
     ae6:	4d07      	ldr	r5, [pc, #28]	; (b04 <set_stack_heap+0x38>)
     ae8:	1a5b      	subs	r3, r3, r1
     aea:	4c07      	ldr	r4, [pc, #28]	; (b08 <set_stack_heap+0x3c>)
     aec:	4807      	ldr	r0, [pc, #28]	; (b0c <set_stack_heap+0x40>)
     aee:	189e      	adds	r6, r3, r2
     af0:	603a      	str	r2, [r7, #0]
     af2:	602e      	str	r6, [r5, #0]
     af4:	6023      	str	r3, [r4, #0]
     af6:	6001      	str	r1, [r0, #0]
     af8:	bcf0      	pop	{r4, r5, r6, r7}
     afa:	4770      	bx	lr
     afc:	10002178 	.word	0x10002178
     b00:	100016f4 	.word	0x100016f4
     b04:	10000440 	.word	0x10000440
     b08:	100016f0 	.word	0x100016f0
     b0c:	1000043c 	.word	0x1000043c

00000b10 <software_init_hook_rtos>:
     b10:	f000 ff26 	bl	1960 <osKernelInitialize>
     b14:	f7ff ffda 	bl	acc <set_stack_heap>
     b18:	4803      	ldr	r0, [pc, #12]	; (b28 <software_init_hook_rtos+0x18>)
     b1a:	2100      	movs	r1, #0
     b1c:	f000 fec4 	bl	18a8 <osThreadCreate>
     b20:	f000 fd1c 	bl	155c <osKernelStart>
     b24:	e7fe      	b.n	b24 <software_init_hook_rtos+0x14>
     b26:	0000      	.short	0x0000
     b28:	100000d0 	.word	0x100000d0

00000b2c <__rtos_malloc_lock>:
     b2c:	4b02      	ldr	r3, [pc, #8]	; (b38 <__rtos_malloc_lock+0xc>)
     b2e:	f04f 31ff 	mov.w	r1, #4294967295	; 0xffffffff
     b32:	6818      	ldr	r0, [r3, #0]
     b34:	f000 be4e 	b.w	17d4 <osMutexWait>
     b38:	10000438 	.word	0x10000438

00000b3c <__rtos_malloc_unlock>:
     b3c:	4b01      	ldr	r3, [pc, #4]	; (b44 <__rtos_malloc_unlock+0x8>)
     b3e:	6818      	ldr	r0, [r3, #0]
     b40:	f000 be70 	b.w	1824 <osMutexRelease>
     b44:	10000438 	.word	0x10000438

00000b48 <rt_put_prio>:
     b48:	b530      	push	{r4, r5, lr}
     b4a:	7802      	ldrb	r2, [r0, #0]
     b4c:	788c      	ldrb	r4, [r1, #2]
     b4e:	3a01      	subs	r2, #1
     b50:	6843      	ldr	r3, [r0, #4]
     b52:	b2d2      	uxtb	r2, r2
     b54:	b113      	cbz	r3, b5c <rt_put_prio+0x14>
     b56:	789d      	ldrb	r5, [r3, #2]
     b58:	42a5      	cmp	r5, r4
     b5a:	d207      	bcs.n	b6c <rt_put_prio+0x24>
     b5c:	2a02      	cmp	r2, #2
     b5e:	604b      	str	r3, [r1, #4]
     b60:	6041      	str	r1, [r0, #4]
     b62:	d806      	bhi.n	b72 <rt_put_prio+0x2a>
     b64:	b103      	cbz	r3, b68 <rt_put_prio+0x20>
     b66:	6099      	str	r1, [r3, #8]
     b68:	6088      	str	r0, [r1, #8]
     b6a:	bd30      	pop	{r4, r5, pc}
     b6c:	4618      	mov	r0, r3
     b6e:	685b      	ldr	r3, [r3, #4]
     b70:	e7f0      	b.n	b54 <rt_put_prio+0xc>
     b72:	2300      	movs	r3, #0
     b74:	608b      	str	r3, [r1, #8]
     b76:	bd30      	pop	{r4, r5, pc}

00000b78 <rt_get_first>:
     b78:	6843      	ldr	r3, [r0, #4]
     b7a:	7802      	ldrb	r2, [r0, #0]
     b7c:	6859      	ldr	r1, [r3, #4]
     b7e:	3a01      	subs	r2, #1
     b80:	2a02      	cmp	r2, #2
     b82:	6041      	str	r1, [r0, #4]
     b84:	f04f 0200 	mov.w	r2, #0
     b88:	d805      	bhi.n	b96 <rt_get_first+0x1e>
     b8a:	b109      	cbz	r1, b90 <rt_get_first+0x18>
     b8c:	6088      	str	r0, [r1, #8]
     b8e:	605a      	str	r2, [r3, #4]
     b90:	609a      	str	r2, [r3, #8]
     b92:	4618      	mov	r0, r3
     b94:	4770      	bx	lr
     b96:	605a      	str	r2, [r3, #4]
     b98:	e7fb      	b.n	b92 <rt_get_first+0x1a>
	...

00000b9c <rt_put_rdy_first>:
     b9c:	4b03      	ldr	r3, [pc, #12]	; (bac <rt_put_rdy_first+0x10>)
     b9e:	685a      	ldr	r2, [r3, #4]
     ba0:	6042      	str	r2, [r0, #4]
     ba2:	2200      	movs	r2, #0
     ba4:	6058      	str	r0, [r3, #4]
     ba6:	6082      	str	r2, [r0, #8]
     ba8:	4770      	bx	lr
     baa:	bf00      	nop
     bac:	100020d0 	.word	0x100020d0

00000bb0 <rt_put_dly>:
     bb0:	4b10      	ldr	r3, [pc, #64]	; (bf4 <rt_put_dly+0x44>)
     bb2:	b510      	push	{r4, lr}
     bb4:	68da      	ldr	r2, [r3, #12]
     bb6:	b18a      	cbz	r2, bdc <rt_put_dly+0x2c>
     bb8:	8a9a      	ldrh	r2, [r3, #20]
     bba:	428a      	cmp	r2, r1
     bbc:	68dc      	ldr	r4, [r3, #12]
     bbe:	d30c      	bcc.n	bda <rt_put_dly+0x2a>
     bc0:	60c4      	str	r4, [r0, #12]
     bc2:	60d8      	str	r0, [r3, #12]
     bc4:	68c4      	ldr	r4, [r0, #12]
     bc6:	6103      	str	r3, [r0, #16]
     bc8:	b104      	cbz	r4, bcc <rt_put_dly+0x1c>
     bca:	6120      	str	r0, [r4, #16]
     bcc:	1a52      	subs	r2, r2, r1
     bce:	b292      	uxth	r2, r2
     bd0:	8282      	strh	r2, [r0, #20]
     bd2:	8a99      	ldrh	r1, [r3, #20]
     bd4:	1a8a      	subs	r2, r1, r2
     bd6:	829a      	strh	r2, [r3, #20]
     bd8:	bd10      	pop	{r4, pc}
     bda:	b93c      	cbnz	r4, bec <rt_put_dly+0x3c>
     bdc:	2400      	movs	r4, #0
     bde:	1a8a      	subs	r2, r1, r2
     be0:	60c4      	str	r4, [r0, #12]
     be2:	60d8      	str	r0, [r3, #12]
     be4:	6103      	str	r3, [r0, #16]
     be6:	829a      	strh	r2, [r3, #20]
     be8:	8284      	strh	r4, [r0, #20]
     bea:	bd10      	pop	{r4, pc}
     bec:	8aa3      	ldrh	r3, [r4, #20]
     bee:	441a      	add	r2, r3
     bf0:	4623      	mov	r3, r4
     bf2:	e7e2      	b.n	bba <rt_put_dly+0xa>
     bf4:	100020e8 	.word	0x100020e8

00000bf8 <rt_dec_dly>:
     bf8:	e92d 41f0 	stmdb	sp!, {r4, r5, r6, r7, r8, lr}
     bfc:	4d17      	ldr	r5, [pc, #92]	; (c5c <Stack_Size+0x5c>)
     bfe:	68eb      	ldr	r3, [r5, #12]
     c00:	b153      	cbz	r3, c18 <Stack_Size+0x18>
     c02:	2600      	movs	r6, #0
     c04:	8aab      	ldrh	r3, [r5, #20]
     c06:	4f16      	ldr	r7, [pc, #88]	; (c60 <Stack_Size+0x60>)
     c08:	3b01      	subs	r3, #1
     c0a:	f8df 8058 	ldr.w	r8, [pc, #88]	; c64 <Stack_Size+0x64>
     c0e:	82ab      	strh	r3, [r5, #20]
     c10:	8aaa      	ldrh	r2, [r5, #20]
     c12:	b90a      	cbnz	r2, c18 <Stack_Size+0x18>
     c14:	68ec      	ldr	r4, [r5, #12]
     c16:	b90c      	cbnz	r4, c1c <Stack_Size+0x1c>
     c18:	e8bd 81f0 	ldmia.w	sp!, {r4, r5, r6, r7, r8, pc}
     c1c:	68a3      	ldr	r3, [r4, #8]
     c1e:	b133      	cbz	r3, c2e <Stack_Size+0x2e>
     c20:	6861      	ldr	r1, [r4, #4]
     c22:	6059      	str	r1, [r3, #4]
     c24:	6861      	ldr	r1, [r4, #4]
     c26:	b109      	cbz	r1, c2c <Stack_Size+0x2c>
     c28:	608b      	str	r3, [r1, #8]
     c2a:	6062      	str	r2, [r4, #4]
     c2c:	60a6      	str	r6, [r4, #8]
     c2e:	4621      	mov	r1, r4
     c30:	4638      	mov	r0, r7
     c32:	f7ff ff89 	bl	b48 <rt_put_prio>
     c36:	8aa3      	ldrh	r3, [r4, #20]
     c38:	82ab      	strh	r3, [r5, #20]
     c3a:	7863      	ldrb	r3, [r4, #1]
     c3c:	2b04      	cmp	r3, #4
     c3e:	bf01      	itttt	eq
     c40:	f8d8 3000 	ldreq.w	r3, [r8]
     c44:	8ae2      	ldrheq	r2, [r4, #22]
     c46:	189b      	addeq	r3, r3, r2
     c48:	82a3      	strheq	r3, [r4, #20]
     c4a:	2301      	movs	r3, #1
     c4c:	7063      	strb	r3, [r4, #1]
     c4e:	68e3      	ldr	r3, [r4, #12]
     c50:	60eb      	str	r3, [r5, #12]
     c52:	b10b      	cbz	r3, c58 <Stack_Size+0x58>
     c54:	611d      	str	r5, [r3, #16]
     c56:	60e6      	str	r6, [r4, #12]
     c58:	6126      	str	r6, [r4, #16]
     c5a:	e7d9      	b.n	c10 <Stack_Size+0x10>
     c5c:	100020e8 	.word	0x100020e8
     c60:	100020d0 	.word	0x100020d0
     c64:	10002164 	.word	0x10002164

00000c68 <rt_rmv_list>:
     c68:	6883      	ldr	r3, [r0, #8]
     c6a:	b12b      	cbz	r3, c78 <rt_rmv_list+0x10>
     c6c:	6842      	ldr	r2, [r0, #4]
     c6e:	605a      	str	r2, [r3, #4]
     c70:	6842      	ldr	r2, [r0, #4]
     c72:	b15a      	cbz	r2, c8c <rt_rmv_list+0x24>
     c74:	6093      	str	r3, [r2, #8]
     c76:	4770      	bx	lr
     c78:	4b05      	ldr	r3, [pc, #20]	; (c90 <rt_rmv_list+0x28>)
     c7a:	685a      	ldr	r2, [r3, #4]
     c7c:	4290      	cmp	r0, r2
     c7e:	d102      	bne.n	c86 <rt_rmv_list+0x1e>
     c80:	6842      	ldr	r2, [r0, #4]
     c82:	605a      	str	r2, [r3, #4]
     c84:	4770      	bx	lr
     c86:	4613      	mov	r3, r2
     c88:	2a00      	cmp	r2, #0
     c8a:	d1f6      	bne.n	c7a <rt_rmv_list+0x12>
     c8c:	4770      	bx	lr
     c8e:	bf00      	nop
     c90:	100020d0 	.word	0x100020d0

00000c94 <rt_resort_prio>:
     c94:	b510      	push	{r4, lr}
     c96:	6884      	ldr	r4, [r0, #8]
     c98:	4601      	mov	r1, r0
     c9a:	b92c      	cbnz	r4, ca8 <rt_resort_prio+0x14>
     c9c:	7843      	ldrb	r3, [r0, #1]
     c9e:	2b01      	cmp	r3, #1
     ca0:	d10d      	bne.n	cbe <rt_resort_prio+0x2a>
     ca2:	4c07      	ldr	r4, [pc, #28]	; (cc0 <rt_resort_prio+0x2c>)
     ca4:	e003      	b.n	cae <rt_resort_prio+0x1a>
     ca6:	68a4      	ldr	r4, [r4, #8]
     ca8:	7823      	ldrb	r3, [r4, #0]
     caa:	2b00      	cmp	r3, #0
     cac:	d0fb      	beq.n	ca6 <rt_resort_prio+0x12>
     cae:	4608      	mov	r0, r1
     cb0:	f7ff ffda 	bl	c68 <rt_rmv_list>
     cb4:	4620      	mov	r0, r4
     cb6:	e8bd 4010 	ldmia.w	sp!, {r4, lr}
     cba:	f7ff bf45 	b.w	b48 <rt_put_prio>
     cbe:	bd10      	pop	{r4, pc}
     cc0:	100020d0 	.word	0x100020d0

00000cc4 <rt_rmv_dly>:
     cc4:	6903      	ldr	r3, [r0, #16]
     cc6:	b510      	push	{r4, lr}
     cc8:	b163      	cbz	r3, ce4 <rt_rmv_dly+0x20>
     cca:	68c2      	ldr	r2, [r0, #12]
     ccc:	60da      	str	r2, [r3, #12]
     cce:	68c2      	ldr	r2, [r0, #12]
     cd0:	b14a      	cbz	r2, ce6 <rt_rmv_dly+0x22>
     cd2:	8a99      	ldrh	r1, [r3, #20]
     cd4:	8a84      	ldrh	r4, [r0, #20]
     cd6:	4421      	add	r1, r4
     cd8:	8299      	strh	r1, [r3, #20]
     cda:	6113      	str	r3, [r2, #16]
     cdc:	2300      	movs	r3, #0
     cde:	60c3      	str	r3, [r0, #12]
     ce0:	2300      	movs	r3, #0
     ce2:	6103      	str	r3, [r0, #16]
     ce4:	bd10      	pop	{r4, pc}
     ce6:	829a      	strh	r2, [r3, #20]
     ce8:	e7fa      	b.n	ce0 <rt_rmv_dly+0x1c>
	...

00000cec <rt_psq_enq>:
     cec:	b470      	push	{r4, r5, r6}
     cee:	4b11      	ldr	r3, [pc, #68]	; (d34 <rt_psq_enq+0x48>)
     cf0:	78dd      	ldrb	r5, [r3, #3]
     cf2:	f3ef 8610 	mrs	r6, PRIMASK
     cf6:	f3ef 8210 	mrs	r2, PRIMASK
     cfa:	b672      	cpsid	i
     cfc:	789a      	ldrb	r2, [r3, #2]
     cfe:	4295      	cmp	r5, r2
     d00:	d911      	bls.n	d26 <rt_psq_enq+0x3a>
     d02:	3201      	adds	r2, #1
     d04:	709a      	strb	r2, [r3, #2]
     d06:	781a      	ldrb	r2, [r3, #0]
     d08:	1c54      	adds	r4, r2, #1
     d0a:	42a5      	cmp	r5, r4
     d0c:	bf08      	it	eq
     d0e:	2400      	moveq	r4, #0
     d10:	701c      	strb	r4, [r3, #0]
     d12:	b906      	cbnz	r6, d16 <rt_psq_enq+0x2a>
     d14:	b662      	cpsie	i
     d16:	4295      	cmp	r5, r2
     d18:	d907      	bls.n	d2a <rt_psq_enq+0x3e>
     d1a:	bc70      	pop	{r4, r5, r6}
     d1c:	eb03 03c2 	add.w	r3, r3, r2, lsl #3
     d20:	6058      	str	r0, [r3, #4]
     d22:	6099      	str	r1, [r3, #8]
     d24:	4770      	bx	lr
     d26:	2e00      	cmp	r6, #0
     d28:	d0f4      	beq.n	d14 <rt_psq_enq+0x28>
     d2a:	bc70      	pop	{r4, r5, r6}
     d2c:	2002      	movs	r0, #2
     d2e:	f7ff bebd 	b.w	aac <os_error>
     d32:	bf00      	nop
     d34:	10001954 	.word	0x10001954

00000d38 <rt_mut_init>:
     d38:	2303      	movs	r3, #3
     d3a:	7003      	strb	r3, [r0, #0]
     d3c:	2300      	movs	r3, #0
     d3e:	8043      	strh	r3, [r0, #2]
     d40:	6043      	str	r3, [r0, #4]
     d42:	6083      	str	r3, [r0, #8]
     d44:	60c3      	str	r3, [r0, #12]
     d46:	4770      	bx	lr

00000d48 <rt_mut_delete>:
     d48:	b5f8      	push	{r3, r4, r5, r6, r7, lr}
     d4a:	8843      	ldrh	r3, [r0, #2]
     d4c:	4604      	mov	r4, r0
     d4e:	b19b      	cbz	r3, d78 <rt_mut_delete+0x30>
     d50:	6880      	ldr	r0, [r0, #8]
     d52:	6a03      	ldr	r3, [r0, #32]
     d54:	429c      	cmp	r4, r3
     d56:	d128      	bne.n	daa <rt_mut_delete+0x62>
     d58:	68e3      	ldr	r3, [r4, #12]
     d5a:	6203      	str	r3, [r0, #32]
     d5c:	f890 3024 	ldrb.w	r3, [r0, #36]	; 0x24
     d60:	6a02      	ldr	r2, [r0, #32]
     d62:	bb52      	cbnz	r2, dba <rt_mut_delete+0x72>
     d64:	7882      	ldrb	r2, [r0, #2]
     d66:	429a      	cmp	r2, r3
     d68:	d006      	beq.n	d78 <rt_mut_delete+0x30>
     d6a:	7083      	strb	r3, [r0, #2]
     d6c:	4b1f      	ldr	r3, [pc, #124]	; (dec <rt_mut_delete+0xa4>)
     d6e:	681b      	ldr	r3, [r3, #0]
     d70:	4298      	cmp	r0, r3
     d72:	d001      	beq.n	d78 <rt_mut_delete+0x30>
     d74:	f7ff ff8e 	bl	c94 <rt_resort_prio>
     d78:	2601      	movs	r6, #1
     d7a:	4f1d      	ldr	r7, [pc, #116]	; (df0 <rt_mut_delete+0xa8>)
     d7c:	6865      	ldr	r5, [r4, #4]
     d7e:	bb25      	cbnz	r5, dca <rt_mut_delete+0x82>
     d80:	481b      	ldr	r0, [pc, #108]	; (df0 <rt_mut_delete+0xa8>)
     d82:	6843      	ldr	r3, [r0, #4]
     d84:	b16b      	cbz	r3, da2 <rt_mut_delete+0x5a>
     d86:	4e19      	ldr	r6, [pc, #100]	; (dec <rt_mut_delete+0xa4>)
     d88:	789a      	ldrb	r2, [r3, #2]
     d8a:	6831      	ldr	r1, [r6, #0]
     d8c:	788b      	ldrb	r3, [r1, #2]
     d8e:	429a      	cmp	r2, r3
     d90:	d907      	bls.n	da2 <rt_mut_delete+0x5a>
     d92:	f7ff fed9 	bl	b48 <rt_put_prio>
     d96:	2201      	movs	r2, #1
     d98:	6833      	ldr	r3, [r6, #0]
     d9a:	4628      	mov	r0, r5
     d9c:	705a      	strb	r2, [r3, #1]
     d9e:	f000 fed3 	bl	1b48 <rt_dispatch>
     da2:	2000      	movs	r0, #0
     da4:	7020      	strb	r0, [r4, #0]
     da6:	bdf8      	pop	{r3, r4, r5, r6, r7, pc}
     da8:	4613      	mov	r3, r2
     daa:	2b00      	cmp	r3, #0
     dac:	d0d6      	beq.n	d5c <rt_mut_delete+0x14>
     dae:	68da      	ldr	r2, [r3, #12]
     db0:	4294      	cmp	r4, r2
     db2:	d1f9      	bne.n	da8 <rt_mut_delete+0x60>
     db4:	68e2      	ldr	r2, [r4, #12]
     db6:	60da      	str	r2, [r3, #12]
     db8:	e7d0      	b.n	d5c <rt_mut_delete+0x14>
     dba:	6851      	ldr	r1, [r2, #4]
     dbc:	b119      	cbz	r1, dc6 <rt_mut_delete+0x7e>
     dbe:	7889      	ldrb	r1, [r1, #2]
     dc0:	428b      	cmp	r3, r1
     dc2:	bf38      	it	cc
     dc4:	460b      	movcc	r3, r1
     dc6:	68d2      	ldr	r2, [r2, #12]
     dc8:	e7cb      	b.n	d62 <rt_mut_delete+0x1a>
     dca:	4620      	mov	r0, r4
     dcc:	f7ff fed4 	bl	b78 <rt_get_first>
     dd0:	4605      	mov	r5, r0
     dd2:	2100      	movs	r1, #0
     dd4:	f000 f8f6 	bl	fc4 <rt_ret_val>
     dd8:	4628      	mov	r0, r5
     dda:	f7ff ff73 	bl	cc4 <rt_rmv_dly>
     dde:	706e      	strb	r6, [r5, #1]
     de0:	4629      	mov	r1, r5
     de2:	4638      	mov	r0, r7
     de4:	f7ff feb0 	bl	b48 <rt_put_prio>
     de8:	e7c8      	b.n	d7c <rt_mut_delete+0x34>
     dea:	bf00      	nop
     dec:	1000211c 	.word	0x1000211c
     df0:	100020d0 	.word	0x100020d0

00000df4 <rt_mut_release>:
     df4:	e92d 43f8 	stmdb	sp!, {r3, r4, r5, r6, r7, r8, r9, lr}
     df8:	8843      	ldrh	r3, [r0, #2]
     dfa:	4605      	mov	r5, r0
     dfc:	2b00      	cmp	r3, #0
     dfe:	d063      	beq.n	ec8 <rt_mut_release+0xd4>
     e00:	4f32      	ldr	r7, [pc, #200]	; (ecc <rt_mut_release+0xd8>)
     e02:	6881      	ldr	r1, [r0, #8]
     e04:	683a      	ldr	r2, [r7, #0]
     e06:	4291      	cmp	r1, r2
     e08:	d15e      	bne.n	ec8 <rt_mut_release+0xd4>
     e0a:	3b01      	subs	r3, #1
     e0c:	b29b      	uxth	r3, r3
     e0e:	8043      	strh	r3, [r0, #2]
     e10:	b11b      	cbz	r3, e1a <rt_mut_release+0x26>
     e12:	2400      	movs	r4, #0
     e14:	4620      	mov	r0, r4
     e16:	e8bd 83f8 	ldmia.w	sp!, {r3, r4, r5, r6, r7, r8, r9, pc}
     e1a:	6a0b      	ldr	r3, [r1, #32]
     e1c:	4298      	cmp	r0, r3
     e1e:	d129      	bne.n	e74 <rt_mut_release+0x80>
     e20:	68c3      	ldr	r3, [r0, #12]
     e22:	620b      	str	r3, [r1, #32]
     e24:	f891 3024 	ldrb.w	r3, [r1, #36]	; 0x24
     e28:	6a0c      	ldr	r4, [r1, #32]
     e2a:	bb5c      	cbnz	r4, e84 <rt_mut_release+0x90>
     e2c:	708b      	strb	r3, [r1, #2]
     e2e:	686a      	ldr	r2, [r5, #4]
     e30:	f8df 809c 	ldr.w	r8, [pc, #156]	; ed0 <rt_mut_release+0xdc>
     e34:	2a00      	cmp	r2, #0
     e36:	d03b      	beq.n	eb0 <rt_mut_release+0xbc>
     e38:	4628      	mov	r0, r5
     e3a:	f7ff fe9d 	bl	b78 <rt_get_first>
     e3e:	4606      	mov	r6, r0
     e40:	f04f 0901 	mov.w	r9, #1
     e44:	4621      	mov	r1, r4
     e46:	f000 f8bd 	bl	fc4 <rt_ret_val>
     e4a:	4630      	mov	r0, r6
     e4c:	f7ff ff3a 	bl	cc4 <rt_rmv_dly>
     e50:	6a33      	ldr	r3, [r6, #32]
     e52:	6839      	ldr	r1, [r7, #0]
     e54:	60eb      	str	r3, [r5, #12]
     e56:	f8d8 3004 	ldr.w	r3, [r8, #4]
     e5a:	f8a5 9002 	strh.w	r9, [r5, #2]
     e5e:	60ae      	str	r6, [r5, #8]
     e60:	6235      	str	r5, [r6, #32]
     e62:	788a      	ldrb	r2, [r1, #2]
     e64:	789b      	ldrb	r3, [r3, #2]
     e66:	429a      	cmp	r2, r3
     e68:	d314      	bcc.n	e94 <rt_mut_release+0xa0>
     e6a:	4630      	mov	r0, r6
     e6c:	f000 fe6c 	bl	1b48 <rt_dispatch>
     e70:	e7d0      	b.n	e14 <rt_mut_release+0x20>
     e72:	4613      	mov	r3, r2
     e74:	2b00      	cmp	r3, #0
     e76:	d0d5      	beq.n	e24 <rt_mut_release+0x30>
     e78:	68da      	ldr	r2, [r3, #12]
     e7a:	4295      	cmp	r5, r2
     e7c:	d1f9      	bne.n	e72 <rt_mut_release+0x7e>
     e7e:	68ea      	ldr	r2, [r5, #12]
     e80:	60da      	str	r2, [r3, #12]
     e82:	e7cf      	b.n	e24 <rt_mut_release+0x30>
     e84:	6862      	ldr	r2, [r4, #4]
     e86:	b11a      	cbz	r2, e90 <rt_mut_release+0x9c>
     e88:	7892      	ldrb	r2, [r2, #2]
     e8a:	4293      	cmp	r3, r2
     e8c:	bf38      	it	cc
     e8e:	4613      	movcc	r3, r2
     e90:	68e4      	ldr	r4, [r4, #12]
     e92:	e7ca      	b.n	e2a <rt_mut_release+0x36>
     e94:	4640      	mov	r0, r8
     e96:	f7ff fe57 	bl	b48 <rt_put_prio>
     e9a:	4631      	mov	r1, r6
     e9c:	4640      	mov	r0, r8
     e9e:	f7ff fe53 	bl	b48 <rt_put_prio>
     ea2:	683b      	ldr	r3, [r7, #0]
     ea4:	f883 9001 	strb.w	r9, [r3, #1]
     ea8:	f886 9001 	strb.w	r9, [r6, #1]
     eac:	4620      	mov	r0, r4
     eae:	e7dd      	b.n	e6c <rt_mut_release+0x78>
     eb0:	f8d8 2004 	ldr.w	r2, [r8, #4]
     eb4:	7892      	ldrb	r2, [r2, #2]
     eb6:	429a      	cmp	r2, r3
     eb8:	d9ab      	bls.n	e12 <rt_mut_release+0x1e>
     eba:	4640      	mov	r0, r8
     ebc:	f7ff fe44 	bl	b48 <rt_put_prio>
     ec0:	2201      	movs	r2, #1
     ec2:	683b      	ldr	r3, [r7, #0]
     ec4:	705a      	strb	r2, [r3, #1]
     ec6:	e7f1      	b.n	eac <rt_mut_release+0xb8>
     ec8:	24ff      	movs	r4, #255	; 0xff
     eca:	e7a3      	b.n	e14 <rt_mut_release+0x20>
     ecc:	1000211c 	.word	0x1000211c
     ed0:	100020d0 	.word	0x100020d0

00000ed4 <rt_mut_wait>:
     ed4:	8843      	ldrh	r3, [r0, #2]
     ed6:	b570      	push	{r4, r5, r6, lr}
     ed8:	4604      	mov	r4, r0
     eda:	460e      	mov	r6, r1
     edc:	4d13      	ldr	r5, [pc, #76]	; (f2c <rt_mut_wait+0x58>)
     ede:	b943      	cbnz	r3, ef2 <rt_mut_wait+0x1e>
     ee0:	682a      	ldr	r2, [r5, #0]
     ee2:	6a11      	ldr	r1, [r2, #32]
     ee4:	6082      	str	r2, [r0, #8]
     ee6:	60c1      	str	r1, [r0, #12]
     ee8:	6210      	str	r0, [r2, #32]
     eea:	3301      	adds	r3, #1
     eec:	8063      	strh	r3, [r4, #2]
     eee:	2000      	movs	r0, #0
     ef0:	bd70      	pop	{r4, r5, r6, pc}
     ef2:	6880      	ldr	r0, [r0, #8]
     ef4:	682a      	ldr	r2, [r5, #0]
     ef6:	4290      	cmp	r0, r2
     ef8:	d0f7      	beq.n	eea <rt_mut_wait+0x16>
     efa:	b181      	cbz	r1, f1e <rt_mut_wait+0x4a>
     efc:	7893      	ldrb	r3, [r2, #2]
     efe:	7882      	ldrb	r2, [r0, #2]
     f00:	429a      	cmp	r2, r3
     f02:	d202      	bcs.n	f0a <rt_mut_wait+0x36>
     f04:	7083      	strb	r3, [r0, #2]
     f06:	f7ff fec5 	bl	c94 <rt_resort_prio>
     f0a:	6862      	ldr	r2, [r4, #4]
     f0c:	b14a      	cbz	r2, f22 <rt_mut_wait+0x4e>
     f0e:	6829      	ldr	r1, [r5, #0]
     f10:	4620      	mov	r0, r4
     f12:	f7ff fe19 	bl	b48 <rt_put_prio>
     f16:	2109      	movs	r1, #9
     f18:	4630      	mov	r0, r6
     f1a:	f000 fe37 	bl	1b8c <rt_block>
     f1e:	2001      	movs	r0, #1
     f20:	bd70      	pop	{r4, r5, r6, pc}
     f22:	682b      	ldr	r3, [r5, #0]
     f24:	6063      	str	r3, [r4, #4]
     f26:	605a      	str	r2, [r3, #4]
     f28:	609c      	str	r4, [r3, #8]
     f2a:	e7f4      	b.n	f16 <rt_mut_wait+0x42>
     f2c:	1000211c 	.word	0x1000211c

00000f30 <rt_init_stack>:
     f30:	b5f0      	push	{r4, r5, r6, r7, lr}
     f32:	f04f 7680 	mov.w	r6, #16777216	; 0x1000000
     f36:	f04f 0e00 	mov.w	lr, #0
     f3a:	6a83      	ldr	r3, [r0, #40]	; 0x28
     f3c:	6b05      	ldr	r5, [r0, #48]	; 0x30
     f3e:	089b      	lsrs	r3, r3, #2
     f40:	bf02      	ittt	eq
     f42:	4b1e      	ldreq	r3, [pc, #120]	; (fbc <rt_init_stack+0x8c>)
     f44:	881b      	ldrheq	r3, [r3, #0]
     f46:	089b      	lsreq	r3, r3, #2
     f48:	eb05 0283 	add.w	r2, r5, r3, lsl #2
     f4c:	0754      	lsls	r4, r2, #29
     f4e:	bf48      	it	mi
     f50:	3a04      	submi	r2, #4
     f52:	e902 0042 	stmdb	r2, {r1, r6}
     f56:	f1a2 0440 	sub.w	r4, r2, #64	; 0x40
     f5a:	f1a2 0644 	sub.w	r6, r2, #68	; 0x44
     f5e:	f1a2 070c 	sub.w	r7, r2, #12
     f62:	f846 ef04 	str.w	lr, [r6, #4]!
     f66:	42be      	cmp	r6, r7
     f68:	d1fb      	bne.n	f62 <rt_init_stack+0x32>
     f6a:	69c6      	ldr	r6, [r0, #28]
     f6c:	f842 6c20 	str.w	r6, [r2, #-32]
     f70:	6341      	str	r1, [r0, #52]	; 0x34
     f72:	4912      	ldr	r1, [pc, #72]	; (fbc <rt_init_stack+0x8c>)
     f74:	62c4      	str	r4, [r0, #44]	; 0x2c
     f76:	6809      	ldr	r1, [r1, #0]
     f78:	00c9      	lsls	r1, r1, #3
     f7a:	d517      	bpl.n	fac <rt_init_stack+0x7c>
     f7c:	2b11      	cmp	r3, #17
     f7e:	d915      	bls.n	fac <rt_init_stack+0x7c>
     f80:	f06f 0107 	mvn.w	r1, #7
     f84:	3b10      	subs	r3, #16
     f86:	085b      	lsrs	r3, r3, #1
     f88:	434b      	muls	r3, r1
     f8a:	f1a3 0138 	sub.w	r1, r3, #56	; 0x38
     f8e:	440a      	add	r2, r1
     f90:	f04f 30cc 	mov.w	r0, #3435973836	; 0xcccccccc
     f94:	4621      	mov	r1, r4
     f96:	4291      	cmp	r1, r2
     f98:	d10b      	bne.n	fb2 <rt_init_stack+0x82>
     f9a:	3308      	adds	r3, #8
     f9c:	441c      	add	r4, r3
     f9e:	1f23      	subs	r3, r4, #4
     fa0:	429d      	cmp	r5, r3
     fa2:	bf3c      	itt	cc
     fa4:	f04f 33cc 	movcc.w	r3, #3435973836	; 0xcccccccc
     fa8:	f844 3c04 	strcc.w	r3, [r4, #-4]
     fac:	4b04      	ldr	r3, [pc, #16]	; (fc0 <rt_init_stack+0x90>)
     fae:	602b      	str	r3, [r5, #0]
     fb0:	bdf0      	pop	{r4, r5, r6, r7, pc}
     fb2:	f841 0c04 	str.w	r0, [r1, #-4]
     fb6:	f841 0d08 	str.w	r0, [r1, #-8]!
     fba:	e7ec      	b.n	f96 <rt_init_stack+0x66>
     fbc:	00008368 	.word	0x00008368
     fc0:	e25a2ea5 	.word	0xe25a2ea5

00000fc4 <rt_ret_val>:
     fc4:	6ac3      	ldr	r3, [r0, #44]	; 0x2c
     fc6:	6219      	str	r1, [r3, #32]
     fc8:	4770      	bx	lr

00000fca <rt_ret_val2>:
     fca:	6ac3      	ldr	r3, [r0, #44]	; 0x2c
     fcc:	6219      	str	r1, [r3, #32]
     fce:	625a      	str	r2, [r3, #36]	; 0x24
     fd0:	4770      	bx	lr
	...

00000fd4 <rt_psh_req>:
     fd4:	4b05      	ldr	r3, [pc, #20]	; (fec <rt_psh_req+0x18>)
     fd6:	781b      	ldrb	r3, [r3, #0]
     fd8:	b923      	cbnz	r3, fe4 <rt_psh_req+0x10>
     fda:	f04f 5280 	mov.w	r2, #268435456	; 0x10000000
     fde:	4b04      	ldr	r3, [pc, #16]	; (ff0 <rt_psh_req+0x1c>)
     fe0:	601a      	str	r2, [r3, #0]
     fe2:	4770      	bx	lr
     fe4:	2201      	movs	r2, #1
     fe6:	4b03      	ldr	r3, [pc, #12]	; (ff4 <rt_psh_req+0x20>)
     fe8:	701a      	strb	r2, [r3, #0]
     fea:	4770      	bx	lr
     fec:	10001494 	.word	0x10001494
     ff0:	e000ed04 	.word	0xe000ed04
     ff4:	10001495 	.word	0x10001495

00000ff8 <rt_pop_req>:
     ff8:	b538      	push	{r3, r4, r5, lr}
     ffa:	4b1a      	ldr	r3, [pc, #104]	; (1064 <rt_pop_req+0x6c>)
     ffc:	4c1a      	ldr	r4, [pc, #104]	; (1068 <rt_pop_req+0x70>)
     ffe:	6818      	ldr	r0, [r3, #0]
    1000:	2301      	movs	r3, #1
    1002:	7043      	strb	r3, [r0, #1]
    1004:	f7ff fdca 	bl	b9c <rt_put_rdy_first>
    1008:	7865      	ldrb	r5, [r4, #1]
    100a:	78a3      	ldrb	r3, [r4, #2]
    100c:	b93b      	cbnz	r3, 101e <rt_pop_req+0x26>
    100e:	4817      	ldr	r0, [pc, #92]	; (106c <rt_pop_req+0x74>)
    1010:	7065      	strb	r5, [r4, #1]
    1012:	f7ff fdb1 	bl	b78 <rt_get_first>
    1016:	e8bd 4038 	ldmia.w	sp!, {r3, r4, r5, lr}
    101a:	f000 bd7b 	b.w	1b14 <rt_switch_req>
    101e:	eb04 03c5 	add.w	r3, r4, r5, lsl #3
    1022:	6858      	ldr	r0, [r3, #4]
    1024:	7802      	ldrb	r2, [r0, #0]
    1026:	b99a      	cbnz	r2, 1050 <rt_pop_req+0x58>
    1028:	8919      	ldrh	r1, [r3, #8]
    102a:	f000 f9bb 	bl	13a4 <rt_evt_psh>
    102e:	78e3      	ldrb	r3, [r4, #3]
    1030:	3501      	adds	r5, #1
    1032:	429d      	cmp	r5, r3
    1034:	bf08      	it	eq
    1036:	2500      	moveq	r5, #0
    1038:	f3ef 8310 	mrs	r3, PRIMASK
    103c:	f3ef 8210 	mrs	r2, PRIMASK
    1040:	b672      	cpsid	i
    1042:	78a2      	ldrb	r2, [r4, #2]
    1044:	3a01      	subs	r2, #1
    1046:	70a2      	strb	r2, [r4, #2]
    1048:	2b00      	cmp	r3, #0
    104a:	d1de      	bne.n	100a <rt_pop_req+0x12>
    104c:	b662      	cpsie	i
    104e:	e7dc      	b.n	100a <rt_pop_req+0x12>
    1050:	2a01      	cmp	r2, #1
    1052:	d103      	bne.n	105c <rt_pop_req+0x64>
    1054:	6899      	ldr	r1, [r3, #8]
    1056:	f000 f933 	bl	12c0 <rt_mbx_psh>
    105a:	e7e8      	b.n	102e <rt_pop_req+0x36>
    105c:	f000 ffba 	bl	1fd4 <rt_sem_psh>
    1060:	e7e5      	b.n	102e <rt_pop_req+0x36>
    1062:	bf00      	nop
    1064:	1000211c 	.word	0x1000211c
    1068:	10001954 	.word	0x10001954
    106c:	100020d0 	.word	0x100020d0

00001070 <os_tick_init>:
    1070:	4b08      	ldr	r3, [pc, #32]	; (1094 <os_tick_init+0x24>)
    1072:	f04f 30ff 	mov.w	r0, #4294967295	; 0xffffffff
    1076:	681a      	ldr	r2, [r3, #0]
    1078:	4b07      	ldr	r3, [pc, #28]	; (1098 <os_tick_init+0x28>)
    107a:	601a      	str	r2, [r3, #0]
    107c:	2200      	movs	r2, #0
    107e:	605a      	str	r2, [r3, #4]
    1080:	2207      	movs	r2, #7
    1082:	f843 2c04 	str.w	r2, [r3, #-4]
    1086:	4a05      	ldr	r2, [pc, #20]	; (109c <os_tick_init+0x2c>)
    1088:	6813      	ldr	r3, [r2, #0]
    108a:	f043 437f 	orr.w	r3, r3, #4278190080	; 0xff000000
    108e:	6013      	str	r3, [r2, #0]
    1090:	4770      	bx	lr
    1092:	bf00      	nop
    1094:	00008380 	.word	0x00008380
    1098:	e000e014 	.word	0xe000e014
    109c:	e000ed20 	.word	0xe000ed20

000010a0 <os_tick_irqack>:
    10a0:	4770      	bx	lr
	...

000010a4 <rt_systick>:
    10a4:	b508      	push	{r3, lr}
    10a6:	4b0b      	ldr	r3, [pc, #44]	; (10d4 <rt_systick+0x30>)
    10a8:	6818      	ldr	r0, [r3, #0]
    10aa:	2301      	movs	r3, #1
    10ac:	7043      	strb	r3, [r0, #1]
    10ae:	f7ff fd75 	bl	b9c <rt_put_rdy_first>
    10b2:	f000 f9ad 	bl	1410 <rt_chk_robin>
    10b6:	4a08      	ldr	r2, [pc, #32]	; (10d8 <rt_systick+0x34>)
    10b8:	6813      	ldr	r3, [r2, #0]
    10ba:	3301      	adds	r3, #1
    10bc:	6013      	str	r3, [r2, #0]
    10be:	f7ff fd9b 	bl	bf8 <rt_dec_dly>
    10c2:	f000 fcaf 	bl	1a24 <sysTimerTick>
    10c6:	4805      	ldr	r0, [pc, #20]	; (10dc <rt_systick+0x38>)
    10c8:	f7ff fd56 	bl	b78 <rt_get_first>
    10cc:	e8bd 4008 	ldmia.w	sp!, {r3, lr}
    10d0:	f000 bd20 	b.w	1b14 <rt_switch_req>
    10d4:	1000211c 	.word	0x1000211c
    10d8:	10002164 	.word	0x10002164
    10dc:	100020d0 	.word	0x100020d0

000010e0 <rt_stk_check>:
    10e0:	4b06      	ldr	r3, [pc, #24]	; (10fc <rt_stk_check+0x1c>)
    10e2:	681a      	ldr	r2, [r3, #0]
    10e4:	6b13      	ldr	r3, [r2, #48]	; 0x30
    10e6:	6ad2      	ldr	r2, [r2, #44]	; 0x2c
    10e8:	4293      	cmp	r3, r2
    10ea:	d803      	bhi.n	10f4 <rt_stk_check+0x14>
    10ec:	681a      	ldr	r2, [r3, #0]
    10ee:	4b04      	ldr	r3, [pc, #16]	; (1100 <rt_stk_check+0x20>)
    10f0:	429a      	cmp	r2, r3
    10f2:	d002      	beq.n	10fa <rt_stk_check+0x1a>
    10f4:	2001      	movs	r0, #1
    10f6:	f7ff bcd9 	b.w	aac <os_error>
    10fa:	4770      	bx	lr
    10fc:	1000211c 	.word	0x1000211c
    1100:	e25a2ea5 	.word	0xe25a2ea5

00001104 <_init_box>:
    1104:	2a00      	cmp	r2, #0
    1106:	bfbb      	ittet	lt
    1108:	f022 4200 	biclt.w	r2, r2, #2147483648	; 0x80000000
    110c:	3207      	addlt	r2, #7
    110e:	3203      	addge	r2, #3
    1110:	f022 0207 	biclt.w	r2, r2, #7
    1114:	bfa8      	it	ge
    1116:	f022 0203 	bicge.w	r2, r2, #3
    111a:	b510      	push	{r4, lr}
    111c:	bfb4      	ite	lt
    111e:	2310      	movlt	r3, #16
    1120:	230c      	movge	r3, #12
    1122:	b192      	cbz	r2, 114a <_init_box+0x46>
    1124:	18d4      	adds	r4, r2, r3
    1126:	428c      	cmp	r4, r1
    1128:	d80f      	bhi.n	114a <_init_box+0x46>
    112a:	4401      	add	r1, r0
    112c:	4403      	add	r3, r0
    112e:	4254      	negs	r4, r2
    1130:	6041      	str	r1, [r0, #4]
    1132:	6003      	str	r3, [r0, #0]
    1134:	6082      	str	r2, [r0, #8]
    1136:	4421      	add	r1, r4
    1138:	1898      	adds	r0, r3, r2
    113a:	4281      	cmp	r1, r0
    113c:	d302      	bcc.n	1144 <_init_box+0x40>
    113e:	5100      	str	r0, [r0, r4]
    1140:	4603      	mov	r3, r0
    1142:	e7f9      	b.n	1138 <_init_box+0x34>
    1144:	2000      	movs	r0, #0
    1146:	6018      	str	r0, [r3, #0]
    1148:	bd10      	pop	{r4, pc}
    114a:	2001      	movs	r0, #1
    114c:	bd10      	pop	{r4, pc}

0000114e <rt_alloc_box>:
    114e:	f3ef 8310 	mrs	r3, PRIMASK
    1152:	b672      	cpsid	i
    1154:	6802      	ldr	r2, [r0, #0]
    1156:	f003 0301 	and.w	r3, r3, #1
    115a:	b10a      	cbz	r2, 1160 <rt_alloc_box+0x12>
    115c:	6811      	ldr	r1, [r2, #0]
    115e:	6001      	str	r1, [r0, #0]
    1160:	b903      	cbnz	r3, 1164 <rt_alloc_box+0x16>
    1162:	b662      	cpsie	i
    1164:	4610      	mov	r0, r2
    1166:	4770      	bx	lr

00001168 <rt_free_box>:
    1168:	4281      	cmp	r1, r0
    116a:	d30d      	bcc.n	1188 <rt_free_box+0x20>
    116c:	6843      	ldr	r3, [r0, #4]
    116e:	4299      	cmp	r1, r3
    1170:	d20a      	bcs.n	1188 <rt_free_box+0x20>
    1172:	f3ef 8310 	mrs	r3, PRIMASK
    1176:	b672      	cpsid	i
    1178:	6802      	ldr	r2, [r0, #0]
    117a:	600a      	str	r2, [r1, #0]
    117c:	6001      	str	r1, [r0, #0]
    117e:	f013 0001 	ands.w	r0, r3, #1
    1182:	d103      	bne.n	118c <rt_free_box+0x24>
    1184:	b662      	cpsie	i
    1186:	4770      	bx	lr
    1188:	2001      	movs	r0, #1
    118a:	4770      	bx	lr
    118c:	2000      	movs	r0, #0
    118e:	4770      	bx	lr

00001190 <rt_mbx_init>:
    1190:	2301      	movs	r3, #1
    1192:	7003      	strb	r3, [r0, #0]
    1194:	2300      	movs	r3, #0
    1196:	3910      	subs	r1, #16
    1198:	0889      	lsrs	r1, r1, #2
    119a:	7043      	strb	r3, [r0, #1]
    119c:	7083      	strb	r3, [r0, #2]
    119e:	6043      	str	r3, [r0, #4]
    11a0:	8103      	strh	r3, [r0, #8]
    11a2:	8143      	strh	r3, [r0, #10]
    11a4:	8183      	strh	r3, [r0, #12]
    11a6:	81c1      	strh	r1, [r0, #14]
    11a8:	4770      	bx	lr
	...

000011ac <rt_mbx_wait>:
    11ac:	b570      	push	{r4, r5, r6, lr}
    11ae:	8985      	ldrh	r5, [r0, #12]
    11b0:	4604      	mov	r4, r0
    11b2:	4616      	mov	r6, r2
    11b4:	2d00      	cmp	r5, #0
    11b6:	d038      	beq.n	122a <rt_mbx_wait+0x7e>
    11b8:	8943      	ldrh	r3, [r0, #10]
    11ba:	1d1a      	adds	r2, r3, #4
    11bc:	f850 2022 	ldr.w	r2, [r0, r2, lsl #2]
    11c0:	3301      	adds	r3, #1
    11c2:	600a      	str	r2, [r1, #0]
    11c4:	89c2      	ldrh	r2, [r0, #14]
    11c6:	b29b      	uxth	r3, r3
    11c8:	429a      	cmp	r2, r3
    11ca:	8143      	strh	r3, [r0, #10]
    11cc:	bf04      	itt	eq
    11ce:	2300      	moveq	r3, #0
    11d0:	8143      	strheq	r3, [r0, #10]
    11d2:	6843      	ldr	r3, [r0, #4]
    11d4:	b1f3      	cbz	r3, 1214 <rt_mbx_wait+0x68>
    11d6:	7843      	ldrb	r3, [r0, #1]
    11d8:	2b02      	cmp	r3, #2
    11da:	d11b      	bne.n	1214 <rt_mbx_wait+0x68>
    11dc:	f7ff fccc 	bl	b78 <rt_get_first>
    11e0:	4605      	mov	r5, r0
    11e2:	2100      	movs	r1, #0
    11e4:	f7ff feee 	bl	fc4 <rt_ret_val>
    11e8:	8923      	ldrh	r3, [r4, #8]
    11ea:	69e9      	ldr	r1, [r5, #28]
    11ec:	1d1a      	adds	r2, r3, #4
    11ee:	f844 1022 	str.w	r1, [r4, r2, lsl #2]
    11f2:	3301      	adds	r3, #1
    11f4:	89e2      	ldrh	r2, [r4, #14]
    11f6:	b29b      	uxth	r3, r3
    11f8:	429a      	cmp	r2, r3
    11fa:	8123      	strh	r3, [r4, #8]
    11fc:	bf08      	it	eq
    11fe:	2300      	moveq	r3, #0
    1200:	4628      	mov	r0, r5
    1202:	bf08      	it	eq
    1204:	8123      	strheq	r3, [r4, #8]
    1206:	f7ff fd5d 	bl	cc4 <rt_rmv_dly>
    120a:	4628      	mov	r0, r5
    120c:	f000 fc9c 	bl	1b48 <rt_dispatch>
    1210:	2000      	movs	r0, #0
    1212:	bd70      	pop	{r4, r5, r6, pc}
    1214:	f3ef 8010 	mrs	r0, PRIMASK
    1218:	f3ef 8310 	mrs	r3, PRIMASK
    121c:	b672      	cpsid	i
    121e:	3d01      	subs	r5, #1
    1220:	81a5      	strh	r5, [r4, #12]
    1222:	2800      	cmp	r0, #0
    1224:	d1f4      	bne.n	1210 <rt_mbx_wait+0x64>
    1226:	b662      	cpsie	i
    1228:	bd70      	pop	{r4, r5, r6, pc}
    122a:	b14a      	cbz	r2, 1240 <rt_mbx_wait+0x94>
    122c:	6842      	ldr	r2, [r0, #4]
    122e:	4b09      	ldr	r3, [pc, #36]	; (1254 <rt_mbx_wait+0xa8>)
    1230:	b142      	cbz	r2, 1244 <rt_mbx_wait+0x98>
    1232:	6819      	ldr	r1, [r3, #0]
    1234:	f7ff fc88 	bl	b48 <rt_put_prio>
    1238:	2108      	movs	r1, #8
    123a:	4630      	mov	r0, r6
    123c:	f000 fca6 	bl	1b8c <rt_block>
    1240:	2001      	movs	r0, #1
    1242:	bd70      	pop	{r4, r5, r6, pc}
    1244:	681b      	ldr	r3, [r3, #0]
    1246:	6043      	str	r3, [r0, #4]
    1248:	605a      	str	r2, [r3, #4]
    124a:	6098      	str	r0, [r3, #8]
    124c:	2301      	movs	r3, #1
    124e:	7043      	strb	r3, [r0, #1]
    1250:	e7f2      	b.n	1238 <rt_mbx_wait+0x8c>
    1252:	bf00      	nop
    1254:	1000211c 	.word	0x1000211c

00001258 <rt_mbx_check>:
    1258:	89c2      	ldrh	r2, [r0, #14]
    125a:	8980      	ldrh	r0, [r0, #12]
    125c:	1a10      	subs	r0, r2, r0
    125e:	4770      	bx	lr

00001260 <isr_mbx_send>:
    1260:	b508      	push	{r3, lr}
    1262:	f7ff fd43 	bl	cec <rt_psq_enq>
    1266:	e8bd 4008 	ldmia.w	sp!, {r3, lr}
    126a:	f7ff beb3 	b.w	fd4 <rt_psh_req>

0000126e <isr_mbx_receive>:
    126e:	8983      	ldrh	r3, [r0, #12]
    1270:	b510      	push	{r4, lr}
    1272:	4604      	mov	r4, r0
    1274:	b30b      	cbz	r3, 12ba <isr_mbx_receive+0x4c>
    1276:	8943      	ldrh	r3, [r0, #10]
    1278:	3304      	adds	r3, #4
    127a:	f850 3023 	ldr.w	r3, [r0, r3, lsl #2]
    127e:	600b      	str	r3, [r1, #0]
    1280:	7843      	ldrb	r3, [r0, #1]
    1282:	2b02      	cmp	r3, #2
    1284:	d104      	bne.n	1290 <isr_mbx_receive+0x22>
    1286:	2100      	movs	r1, #0
    1288:	f7ff fd30 	bl	cec <rt_psq_enq>
    128c:	f7ff fea2 	bl	fd4 <rt_psh_req>
    1290:	f3ef 8310 	mrs	r3, PRIMASK
    1294:	f3ef 8210 	mrs	r2, PRIMASK
    1298:	b672      	cpsid	i
    129a:	89a2      	ldrh	r2, [r4, #12]
    129c:	3a01      	subs	r2, #1
    129e:	81a2      	strh	r2, [r4, #12]
    12a0:	b903      	cbnz	r3, 12a4 <isr_mbx_receive+0x36>
    12a2:	b662      	cpsie	i
    12a4:	8963      	ldrh	r3, [r4, #10]
    12a6:	89e2      	ldrh	r2, [r4, #14]
    12a8:	3301      	adds	r3, #1
    12aa:	b29b      	uxth	r3, r3
    12ac:	429a      	cmp	r2, r3
    12ae:	8163      	strh	r3, [r4, #10]
    12b0:	d101      	bne.n	12b6 <isr_mbx_receive+0x48>
    12b2:	2300      	movs	r3, #0
    12b4:	8163      	strh	r3, [r4, #10]
    12b6:	2004      	movs	r0, #4
    12b8:	bd10      	pop	{r4, pc}
    12ba:	4618      	mov	r0, r3
    12bc:	bd10      	pop	{r4, pc}
	...

000012c0 <rt_mbx_psh>:
    12c0:	6843      	ldr	r3, [r0, #4]
    12c2:	b570      	push	{r4, r5, r6, lr}
    12c4:	4604      	mov	r4, r0
    12c6:	460e      	mov	r6, r1
    12c8:	2b00      	cmp	r3, #0
    12ca:	d04b      	beq.n	1364 <rt_mbx_psh+0xa4>
    12cc:	7845      	ldrb	r5, [r0, #1]
    12ce:	2d02      	cmp	r5, #2
    12d0:	d020      	beq.n	1314 <rt_mbx_psh+0x54>
    12d2:	2d03      	cmp	r5, #3
    12d4:	d00a      	beq.n	12ec <rt_mbx_psh+0x2c>
    12d6:	2d01      	cmp	r5, #1
    12d8:	d161      	bne.n	139e <rt_mbx_psh+0xde>
    12da:	f7ff fc4d 	bl	b78 <rt_get_first>
    12de:	4604      	mov	r4, r0
    12e0:	4632      	mov	r2, r6
    12e2:	2110      	movs	r1, #16
    12e4:	f7ff fe71 	bl	fca <rt_ret_val2>
    12e8:	7065      	strb	r5, [r4, #1]
    12ea:	e00e      	b.n	130a <rt_mbx_psh+0x4a>
    12ec:	4608      	mov	r0, r1
    12ee:	f7ff ff2e 	bl	114e <rt_alloc_box>
    12f2:	4605      	mov	r5, r0
    12f4:	2800      	cmp	r0, #0
    12f6:	d052      	beq.n	139e <rt_mbx_psh+0xde>
    12f8:	4620      	mov	r0, r4
    12fa:	f7ff fc3d 	bl	b78 <rt_get_first>
    12fe:	4629      	mov	r1, r5
    1300:	4604      	mov	r4, r0
    1302:	f7ff fe5f 	bl	fc4 <rt_ret_val>
    1306:	2301      	movs	r3, #1
    1308:	7063      	strb	r3, [r4, #1]
    130a:	4620      	mov	r0, r4
    130c:	f7ff fcda 	bl	cc4 <rt_rmv_dly>
    1310:	4621      	mov	r1, r4
    1312:	e022      	b.n	135a <rt_mbx_psh+0x9a>
    1314:	f7ff fc30 	bl	b78 <rt_get_first>
    1318:	4605      	mov	r5, r0
    131a:	2100      	movs	r1, #0
    131c:	f7ff fe52 	bl	fc4 <rt_ret_val>
    1320:	8923      	ldrh	r3, [r4, #8]
    1322:	69e9      	ldr	r1, [r5, #28]
    1324:	1d1a      	adds	r2, r3, #4
    1326:	f844 1022 	str.w	r1, [r4, r2, lsl #2]
    132a:	f3ef 8210 	mrs	r2, PRIMASK
    132e:	f3ef 8110 	mrs	r1, PRIMASK
    1332:	b672      	cpsid	i
    1334:	89a1      	ldrh	r1, [r4, #12]
    1336:	3101      	adds	r1, #1
    1338:	81a1      	strh	r1, [r4, #12]
    133a:	b902      	cbnz	r2, 133e <rt_mbx_psh+0x7e>
    133c:	b662      	cpsie	i
    133e:	89e2      	ldrh	r2, [r4, #14]
    1340:	3301      	adds	r3, #1
    1342:	b29b      	uxth	r3, r3
    1344:	429a      	cmp	r2, r3
    1346:	8123      	strh	r3, [r4, #8]
    1348:	bf04      	itt	eq
    134a:	2300      	moveq	r3, #0
    134c:	8123      	strheq	r3, [r4, #8]
    134e:	2301      	movs	r3, #1
    1350:	4628      	mov	r0, r5
    1352:	706b      	strb	r3, [r5, #1]
    1354:	f7ff fcb6 	bl	cc4 <rt_rmv_dly>
    1358:	4629      	mov	r1, r5
    135a:	e8bd 4070 	ldmia.w	sp!, {r4, r5, r6, lr}
    135e:	4810      	ldr	r0, [pc, #64]	; (13a0 <rt_mbx_psh+0xe0>)
    1360:	f7ff bbf2 	b.w	b48 <rt_put_prio>
    1364:	8980      	ldrh	r0, [r0, #12]
    1366:	89e1      	ldrh	r1, [r4, #14]
    1368:	4288      	cmp	r0, r1
    136a:	d213      	bcs.n	1394 <rt_mbx_psh+0xd4>
    136c:	8923      	ldrh	r3, [r4, #8]
    136e:	1d1a      	adds	r2, r3, #4
    1370:	f844 6022 	str.w	r6, [r4, r2, lsl #2]
    1374:	f3ef 8210 	mrs	r2, PRIMASK
    1378:	f3ef 8510 	mrs	r5, PRIMASK
    137c:	b672      	cpsid	i
    137e:	3001      	adds	r0, #1
    1380:	81a0      	strh	r0, [r4, #12]
    1382:	b902      	cbnz	r2, 1386 <rt_mbx_psh+0xc6>
    1384:	b662      	cpsie	i
    1386:	3301      	adds	r3, #1
    1388:	b29b      	uxth	r3, r3
    138a:	4299      	cmp	r1, r3
    138c:	bf08      	it	eq
    138e:	2300      	moveq	r3, #0
    1390:	8123      	strh	r3, [r4, #8]
    1392:	bd70      	pop	{r4, r5, r6, pc}
    1394:	2003      	movs	r0, #3
    1396:	e8bd 4070 	ldmia.w	sp!, {r4, r5, r6, lr}
    139a:	f7ff bb87 	b.w	aac <os_error>
    139e:	bd70      	pop	{r4, r5, r6, pc}
    13a0:	100020d0 	.word	0x100020d0

000013a4 <rt_evt_psh>:
    13a4:	b510      	push	{r4, lr}
    13a6:	8b03      	ldrh	r3, [r0, #24]
    13a8:	7842      	ldrb	r2, [r0, #1]
    13aa:	4319      	orrs	r1, r3
    13ac:	2a06      	cmp	r2, #6
    13ae:	4604      	mov	r4, r0
    13b0:	8301      	strh	r1, [r0, #24]
    13b2:	8b43      	ldrh	r3, [r0, #26]
    13b4:	d115      	bne.n	13e2 <rt_evt_psh+0x3e>
    13b6:	ea33 0201 	bics.w	r2, r3, r1
    13ba:	d119      	bne.n	13f0 <rt_evt_psh+0x4c>
    13bc:	ea21 0103 	bic.w	r1, r1, r3
    13c0:	8321      	strh	r1, [r4, #24]
    13c2:	4620      	mov	r0, r4
    13c4:	f7ff fc7e 	bl	cc4 <rt_rmv_dly>
    13c8:	2301      	movs	r3, #1
    13ca:	4620      	mov	r0, r4
    13cc:	7063      	strb	r3, [r4, #1]
    13ce:	8b62      	ldrh	r2, [r4, #26]
    13d0:	2108      	movs	r1, #8
    13d2:	f7ff fdfa 	bl	fca <rt_ret_val2>
    13d6:	4621      	mov	r1, r4
    13d8:	e8bd 4010 	ldmia.w	sp!, {r4, lr}
    13dc:	4805      	ldr	r0, [pc, #20]	; (13f4 <rt_evt_psh+0x50>)
    13de:	f7ff bbb3 	b.w	b48 <rt_put_prio>
    13e2:	2a05      	cmp	r2, #5
    13e4:	d104      	bne.n	13f0 <rt_evt_psh+0x4c>
    13e6:	ea11 0203 	ands.w	r2, r1, r3
    13ea:	d001      	beq.n	13f0 <rt_evt_psh+0x4c>
    13ec:	8342      	strh	r2, [r0, #26]
    13ee:	e7e5      	b.n	13bc <rt_evt_psh+0x18>
    13f0:	bd10      	pop	{r4, pc}
    13f2:	bf00      	nop
    13f4:	100020d0 	.word	0x100020d0

000013f8 <rt_init_robin>:
    13f8:	2200      	movs	r2, #0
    13fa:	4b03      	ldr	r3, [pc, #12]	; (1408 <rt_init_robin+0x10>)
    13fc:	601a      	str	r2, [r3, #0]
    13fe:	4a03      	ldr	r2, [pc, #12]	; (140c <rt_init_robin+0x14>)
    1400:	6812      	ldr	r2, [r2, #0]
    1402:	80da      	strh	r2, [r3, #6]
    1404:	4770      	bx	lr
    1406:	bf00      	nop
    1408:	10002108 	.word	0x10002108
    140c:	00008364 	.word	0x00008364

00001410 <rt_chk_robin>:
    1410:	b508      	push	{r3, lr}
    1412:	4b0e      	ldr	r3, [pc, #56]	; (144c <rt_chk_robin+0x3c>)
    1414:	685a      	ldr	r2, [r3, #4]
    1416:	4b0e      	ldr	r3, [pc, #56]	; (1450 <rt_chk_robin+0x40>)
    1418:	6819      	ldr	r1, [r3, #0]
    141a:	4291      	cmp	r1, r2
    141c:	490d      	ldr	r1, [pc, #52]	; (1454 <rt_chk_robin+0x44>)
    141e:	d005      	beq.n	142c <rt_chk_robin+0x1c>
    1420:	601a      	str	r2, [r3, #0]
    1422:	88da      	ldrh	r2, [r3, #6]
    1424:	6808      	ldr	r0, [r1, #0]
    1426:	3a01      	subs	r2, #1
    1428:	4402      	add	r2, r0
    142a:	809a      	strh	r2, [r3, #4]
    142c:	8898      	ldrh	r0, [r3, #4]
    142e:	880a      	ldrh	r2, [r1, #0]
    1430:	4290      	cmp	r0, r2
    1432:	d10a      	bne.n	144a <rt_chk_robin+0x3a>
    1434:	2200      	movs	r2, #0
    1436:	4805      	ldr	r0, [pc, #20]	; (144c <rt_chk_robin+0x3c>)
    1438:	601a      	str	r2, [r3, #0]
    143a:	f7ff fb9d 	bl	b78 <rt_get_first>
    143e:	e8bd 4008 	ldmia.w	sp!, {r3, lr}
    1442:	4601      	mov	r1, r0
    1444:	4801      	ldr	r0, [pc, #4]	; (144c <rt_chk_robin+0x3c>)
    1446:	f7ff bb7f 	b.w	b48 <rt_put_prio>
    144a:	bd08      	pop	{r3, pc}
    144c:	100020d0 	.word	0x100020d0
    1450:	10002108 	.word	0x10002108
    1454:	10002164 	.word	0x10002164

00001458 <rt_timer_insert>:
    1458:	b530      	push	{r4, r5, lr}
    145a:	2400      	movs	r4, #0
    145c:	4a0a      	ldr	r2, [pc, #40]	; (1488 <rt_timer_insert+0x30>)
    145e:	6813      	ldr	r3, [r2, #0]
    1460:	b943      	cbnz	r3, 1474 <rt_timer_insert+0x1c>
    1462:	6003      	str	r3, [r0, #0]
    1464:	6081      	str	r1, [r0, #8]
    1466:	b113      	cbz	r3, 146e <rt_timer_insert+0x16>
    1468:	689d      	ldr	r5, [r3, #8]
    146a:	1a69      	subs	r1, r5, r1
    146c:	6099      	str	r1, [r3, #8]
    146e:	b144      	cbz	r4, 1482 <rt_timer_insert+0x2a>
    1470:	6020      	str	r0, [r4, #0]
    1472:	bd30      	pop	{r4, r5, pc}
    1474:	689d      	ldr	r5, [r3, #8]
    1476:	42a9      	cmp	r1, r5
    1478:	d3f3      	bcc.n	1462 <rt_timer_insert+0xa>
    147a:	461c      	mov	r4, r3
    147c:	1b49      	subs	r1, r1, r5
    147e:	681b      	ldr	r3, [r3, #0]
    1480:	e7ee      	b.n	1460 <rt_timer_insert+0x8>
    1482:	6010      	str	r0, [r2, #0]
    1484:	bd30      	pop	{r4, r5, pc}
    1486:	bf00      	nop
    1488:	10002118 	.word	0x10002118

0000148c <rt_ms2tick>:
    148c:	b1c0      	cbz	r0, 14c0 <rt_ms2tick+0x34>
    148e:	1c43      	adds	r3, r0, #1
    1490:	d011      	beq.n	14b6 <rt_ms2tick+0x2a>
    1492:	4b0c      	ldr	r3, [pc, #48]	; (14c4 <rt_ms2tick+0x38>)
    1494:	4298      	cmp	r0, r3
    1496:	d811      	bhi.n	14bc <rt_ms2tick+0x30>
    1498:	f44f 717a 	mov.w	r1, #1000	; 0x3e8
    149c:	4b0a      	ldr	r3, [pc, #40]	; (14c8 <rt_ms2tick+0x3c>)
    149e:	681b      	ldr	r3, [r3, #0]
    14a0:	1e5a      	subs	r2, r3, #1
    14a2:	fb01 2000 	mla	r0, r1, r0, r2
    14a6:	fbb0 f3f3 	udiv	r3, r0, r3
    14aa:	f64f 70fe 	movw	r0, #65534	; 0xfffe
    14ae:	4283      	cmp	r3, r0
    14b0:	d806      	bhi.n	14c0 <rt_ms2tick+0x34>
    14b2:	b298      	uxth	r0, r3
    14b4:	4770      	bx	lr
    14b6:	f64f 70ff 	movw	r0, #65535	; 0xffff
    14ba:	4770      	bx	lr
    14bc:	f64f 70fe 	movw	r0, #65534	; 0xfffe
    14c0:	4770      	bx	lr
    14c2:	bf00      	nop
    14c4:	003d0900 	.word	0x003d0900
    14c8:	0000831c 	.word	0x0000831c

000014cc <rt_tid2ptcb>:
    14cc:	b138      	cbz	r0, 14de <rt_tid2ptcb+0x12>
    14ce:	0783      	lsls	r3, r0, #30
    14d0:	d104      	bne.n	14dc <rt_tid2ptcb+0x10>
    14d2:	7803      	ldrb	r3, [r0, #0]
    14d4:	2b00      	cmp	r3, #0
    14d6:	bf18      	it	ne
    14d8:	2000      	movne	r0, #0
    14da:	4770      	bx	lr
    14dc:	2000      	movs	r0, #0
    14de:	4770      	bx	lr

000014e0 <svcKernelStart>:
    14e0:	b5b0      	push	{r4, r5, r7, lr}
    14e2:	4d0e      	ldr	r5, [pc, #56]	; (151c <svcKernelStart+0x3c>)
    14e4:	af00      	add	r7, sp, #0
    14e6:	7828      	ldrb	r0, [r5, #0]
    14e8:	b9a8      	cbnz	r0, 1516 <svcKernelStart+0x36>
    14ea:	4c0d      	ldr	r4, [pc, #52]	; (1520 <svcKernelStart+0x40>)
    14ec:	6823      	ldr	r3, [r4, #0]
    14ee:	f893 1024 	ldrb.w	r1, [r3, #36]	; 0x24
    14f2:	f000 fb6d 	bl	1bd0 <rt_tsk_prio>
    14f6:	6823      	ldr	r3, [r4, #0]
    14f8:	78da      	ldrb	r2, [r3, #3]
    14fa:	2aff      	cmp	r2, #255	; 0xff
    14fc:	d103      	bne.n	1506 <svcKernelStart+0x26>
    14fe:	6ada      	ldr	r2, [r3, #44]	; 0x2c
    1500:	3220      	adds	r2, #32
    1502:	f382 8809 	msr	PSP, r2
    1506:	6862      	ldr	r2, [r4, #4]
    1508:	b90a      	cbnz	r2, 150e <svcKernelStart+0x2e>
    150a:	e884 000c 	stmia.w	r4, {r2, r3}
    150e:	f000 fd17 	bl	1f40 <rt_sys_start>
    1512:	2301      	movs	r3, #1
    1514:	702b      	strb	r3, [r5, #0]
    1516:	2000      	movs	r0, #0
    1518:	bdb0      	pop	{r4, r5, r7, pc}
    151a:	bf00      	nop
    151c:	10002115 	.word	0x10002115
    1520:	1000211c 	.word	0x1000211c

00001524 <svcKernelRunning>:
    1524:	4b01      	ldr	r3, [pc, #4]	; (152c <svcKernelRunning+0x8>)
    1526:	7818      	ldrb	r0, [r3, #0]
    1528:	4770      	bx	lr
    152a:	bf00      	nop
    152c:	10002115 	.word	0x10002115

00001530 <osKernelRunning>:
    1530:	b510      	push	{r4, lr}
    1532:	f3ef 8410 	mrs	r4, PRIMASK
    1536:	b934      	cbnz	r4, 1546 <osKernelRunning+0x16>
    1538:	f3ef 8405 	mrs	r4, IPSR
    153c:	b91c      	cbnz	r4, 1546 <osKernelRunning+0x16>
    153e:	f3ef 8414 	mrs	r4, CONTROL
    1542:	07e4      	lsls	r4, r4, #31
    1544:	d402      	bmi.n	154c <osKernelRunning+0x1c>
    1546:	4b03      	ldr	r3, [pc, #12]	; (1554 <osKernelRunning+0x24>)
    1548:	7818      	ldrb	r0, [r3, #0]
    154a:	bd10      	pop	{r4, pc}
    154c:	f8df c008 	ldr.w	r12, [pc, #8]	; 1558 <osKernelRunning+0x28>
    1550:	df00      	svc	0
    1552:	bd10      	pop	{r4, pc}
    1554:	10002115 	.word	0x10002115
    1558:	00001525 	.word	0x00001525

0000155c <osKernelStart>:
    155c:	b590      	push	{r4, r7, lr}
    155e:	b089      	sub	sp, #36	; 0x24
    1560:	af00      	add	r7, sp, #0
    1562:	f3ef 8310 	mrs	r3, PRIMASK
    1566:	2b00      	cmp	r3, #0
    1568:	d137      	bne.n	15da <osKernelStart+0x7e>
    156a:	f3ef 8305 	mrs	r3, IPSR
    156e:	2b00      	cmp	r3, #0
    1570:	d133      	bne.n	15da <osKernelStart+0x7e>
    1572:	f7ff ffdd 	bl	1530 <osKernelRunning>
    1576:	b928      	cbnz	r0, 1584 <osKernelStart+0x28>
    1578:	4c19      	ldr	r4, [pc, #100]	; (15e0 <osKernelStart+0x84>)
    157a:	6824      	ldr	r4, [r4, #0]
    157c:	b114      	cbz	r4, 1584 <osKernelStart+0x28>
    157e:	6864      	ldr	r4, [r4, #4]
    1580:	b104      	cbz	r4, 1584 <osKernelStart+0x28>
    1582:	47a0      	blx	r4
    1584:	f3ef 8414 	mrs	r4, CONTROL
    1588:	f004 0403 	and.w	r4, r4, #3
    158c:	2c02      	cmp	r4, #2
    158e:	d018      	beq.n	15c2 <osKernelStart+0x66>
    1590:	2c03      	cmp	r4, #3
    1592:	d01c      	beq.n	15ce <osKernelStart+0x72>
    1594:	2c01      	cmp	r4, #1
    1596:	d01e      	beq.n	15d6 <osKernelStart+0x7a>
    1598:	f107 0420 	add.w	r4, r7, #32
    159c:	f384 8809 	msr	PSP, r4
    15a0:	4c10      	ldr	r4, [pc, #64]	; (15e4 <osKernelStart+0x88>)
    15a2:	7824      	ldrb	r4, [r4, #0]
    15a4:	07e4      	lsls	r4, r4, #31
    15a6:	d510      	bpl.n	15ca <osKernelStart+0x6e>
    15a8:	2402      	movs	r4, #2
    15aa:	f384 8814 	msr	CONTROL, r4
    15ae:	f3bf 8f4f 	dsb	sy
    15b2:	f3bf 8f6f 	isb	sy
    15b6:	f8df c030 	ldr.w	r12, [pc, #48]	; 15e8 <osKernelStart+0x8c>
    15ba:	df00      	svc	0
    15bc:	3724      	adds	r7, #36	; 0x24
    15be:	46bd      	mov	sp, r7
    15c0:	bd90      	pop	{r4, r7, pc}
    15c2:	4c08      	ldr	r4, [pc, #32]	; (15e4 <osKernelStart+0x88>)
    15c4:	7824      	ldrb	r4, [r4, #0]
    15c6:	07e4      	lsls	r4, r4, #31
    15c8:	d4f5      	bmi.n	15b6 <osKernelStart+0x5a>
    15ca:	2403      	movs	r4, #3
    15cc:	e7ed      	b.n	15aa <osKernelStart+0x4e>
    15ce:	4c05      	ldr	r4, [pc, #20]	; (15e4 <osKernelStart+0x88>)
    15d0:	7824      	ldrb	r4, [r4, #0]
    15d2:	07e4      	lsls	r4, r4, #31
    15d4:	d5ef      	bpl.n	15b6 <osKernelStart+0x5a>
    15d6:	20ff      	movs	r0, #255	; 0xff
    15d8:	e7f0      	b.n	15bc <osKernelStart+0x60>
    15da:	2082      	movs	r0, #130	; 0x82
    15dc:	e7ee      	b.n	15bc <osKernelStart+0x60>
    15de:	bf00      	nop
    15e0:	10002104 	.word	0x10002104
    15e4:	0000834a 	.word	0x0000834a
    15e8:	000014e1 	.word	0x000014e1

000015ec <svcThreadCreate>:
    15ec:	b570      	push	{r4, r5, r6, lr}
    15ee:	460b      	mov	r3, r1
    15f0:	4616      	mov	r6, r2
    15f2:	4602      	mov	r2, r0
    15f4:	b910      	cbnz	r0, 15fc <svcThreadCreate+0x10>
    15f6:	2400      	movs	r4, #0
    15f8:	4620      	mov	r0, r4
    15fa:	bd70      	pop	{r4, r5, r6, pc}
    15fc:	6800      	ldr	r0, [r0, #0]
    15fe:	2800      	cmp	r0, #0
    1600:	d0f9      	beq.n	15f6 <svcThreadCreate+0xa>
    1602:	f9b2 4004 	ldrsh.w	r4, [r2, #4]
    1606:	1ce5      	adds	r5, r4, #3
    1608:	b2ad      	uxth	r5, r5
    160a:	2d06      	cmp	r5, #6
    160c:	d8f3      	bhi.n	15f6 <svcThreadCreate+0xa>
    160e:	68d1      	ldr	r1, [r2, #12]
    1610:	b1c1      	cbz	r1, 1644 <svcThreadCreate+0x58>
    1612:	6912      	ldr	r2, [r2, #16]
    1614:	3404      	adds	r4, #4
    1616:	ea44 2101 	orr.w	r1, r4, r1, lsl #8
    161a:	f000 fb17 	bl	1c4c <rt_tsk_create>
    161e:	2800      	cmp	r0, #0
    1620:	d0e9      	beq.n	15f6 <svcThreadCreate+0xa>
    1622:	4b0a      	ldr	r3, [pc, #40]	; (164c <svcThreadCreate+0x60>)
    1624:	3801      	subs	r0, #1
    1626:	f853 4020 	ldr.w	r4, [r3, r0, lsl #2]
    162a:	4a09      	ldr	r2, [pc, #36]	; (1650 <svcThreadCreate+0x64>)
    162c:	6ae3      	ldr	r3, [r4, #44]	; 0x2c
    162e:	635a      	str	r2, [r3, #52]	; 0x34
    1630:	4b08      	ldr	r3, [pc, #32]	; (1654 <svcThreadCreate+0x68>)
    1632:	681b      	ldr	r3, [r3, #0]
    1634:	b143      	cbz	r3, 1648 <svcThreadCreate+0x5c>
    1636:	689b      	ldr	r3, [r3, #8]
    1638:	b133      	cbz	r3, 1648 <svcThreadCreate+0x5c>
    163a:	4631      	mov	r1, r6
    163c:	78e0      	ldrb	r0, [r4, #3]
    163e:	4798      	blx	r3
    1640:	63e0      	str	r0, [r4, #60]	; 0x3c
    1642:	e7d9      	b.n	15f8 <svcThreadCreate+0xc>
    1644:	460a      	mov	r2, r1
    1646:	e7e5      	b.n	1614 <svcThreadCreate+0x28>
    1648:	63e6      	str	r6, [r4, #60]	; 0x3c
    164a:	e7d5      	b.n	15f8 <svcThreadCreate+0xc>
    164c:	10001918 	.word	0x10001918
    1650:	000017f5 	.word	0x000017f5
    1654:	10002104 	.word	0x10002104

00001658 <svcThreadGetId>:
    1658:	b508      	push	{r3, lr}
    165a:	f000 fab1 	bl	1bc0 <rt_tsk_self>
    165e:	b118      	cbz	r0, 1668 <svcThreadGetId+0x10>
    1660:	4b02      	ldr	r3, [pc, #8]	; (166c <svcThreadGetId+0x14>)
    1662:	3801      	subs	r0, #1
    1664:	f853 0020 	ldr.w	r0, [r3, r0, lsl #2]
    1668:	bd08      	pop	{r3, pc}
    166a:	bf00      	nop
    166c:	10001918 	.word	0x10001918

00001670 <svcThreadTerminate>:
    1670:	b510      	push	{r4, lr}
    1672:	f7ff ff2b 	bl	14cc <rt_tid2ptcb>
    1676:	4604      	mov	r4, r0
    1678:	b170      	cbz	r0, 1698 <svcThreadTerminate+0x28>
    167a:	4b08      	ldr	r3, [pc, #32]	; (169c <svcThreadTerminate+0x2c>)
    167c:	681b      	ldr	r3, [r3, #0]
    167e:	b11b      	cbz	r3, 1688 <svcThreadTerminate+0x18>
    1680:	68db      	ldr	r3, [r3, #12]
    1682:	b10b      	cbz	r3, 1688 <svcThreadTerminate+0x18>
    1684:	6bc0      	ldr	r0, [r0, #60]	; 0x3c
    1686:	4798      	blx	r3
    1688:	78e0      	ldrb	r0, [r4, #3]
    168a:	f000 fb35 	bl	1cf8 <rt_tsk_delete>
    168e:	28ff      	cmp	r0, #255	; 0xff
    1690:	bf0c      	ite	eq
    1692:	2081      	moveq	r0, #129	; 0x81
    1694:	2000      	movne	r0, #0
    1696:	bd10      	pop	{r4, pc}
    1698:	2080      	movs	r0, #128	; 0x80
    169a:	bd10      	pop	{r4, pc}
    169c:	10002104 	.word	0x10002104

000016a0 <svcDelay>:
    16a0:	b508      	push	{r3, lr}
    16a2:	b128      	cbz	r0, 16b0 <svcDelay+0x10>
    16a4:	f7ff fef2 	bl	148c <rt_ms2tick>
    16a8:	f000 fc90 	bl	1fcc <rt_dly_wait>
    16ac:	2040      	movs	r0, #64	; 0x40
    16ae:	bd08      	pop	{r3, pc}
    16b0:	bd08      	pop	{r3, pc}
	...

000016b4 <osDelay>:
    16b4:	b510      	push	{r4, lr}
    16b6:	f3ef 8410 	mrs	r4, PRIMASK
    16ba:	b934      	cbnz	r4, 16ca <osDelay+0x16>
    16bc:	f3ef 8405 	mrs	r4, IPSR
    16c0:	b91c      	cbnz	r4, 16ca <osDelay+0x16>
    16c2:	f8df c00c 	ldr.w	r12, [pc, #12]	; 16d0 <osDelay+0x1c>
    16c6:	df00      	svc	0
    16c8:	bd10      	pop	{r4, pc}
    16ca:	2082      	movs	r0, #130	; 0x82
    16cc:	bd10      	pop	{r4, pc}
    16ce:	0000      	.short	0x0000
    16d0:	000016a1 	.word	0x000016a1

000016d4 <svcTimerCall>:
    16d4:	0783      	lsls	r3, r0, #30
    16d6:	d105      	bne.n	16e4 <svcTimerCall+0x10>
    16d8:	b138      	cbz	r0, 16ea <svcTimerCall+0x16>
    16da:	6943      	ldr	r3, [r0, #20]
    16dc:	6901      	ldr	r1, [r0, #16]
    16de:	681b      	ldr	r3, [r3, #0]
    16e0:	4618      	mov	r0, r3
    16e2:	4770      	bx	lr
    16e4:	2300      	movs	r3, #0
    16e6:	4619      	mov	r1, r3
    16e8:	e7fa      	b.n	16e0 <svcTimerCall+0xc>
    16ea:	4603      	mov	r3, r0
    16ec:	e7fb      	b.n	16e6 <svcTimerCall+0x12>
	...

000016f0 <osTimerCall>:
    16f0:	b510      	push	{r4, lr}
    16f2:	4604      	mov	r4, r0
    16f4:	4608      	mov	r0, r1
    16f6:	f8df c00c 	ldr.w	r12, [pc, #12]	; 1704 <osTimerCall+0x14>
    16fa:	df00      	svc	0
    16fc:	e884 0003 	stmia.w	r4, {r0, r1}
    1700:	4620      	mov	r0, r4
    1702:	bd10      	pop	{r4, pc}
    1704:	000016d5 	.word	0x000016d5

00001708 <svcMutexCreate>:
    1708:	b510      	push	{r4, lr}
    170a:	b148      	cbz	r0, 1720 <svcMutexCreate+0x18>
    170c:	6804      	ldr	r4, [r0, #0]
    170e:	b124      	cbz	r4, 171a <svcMutexCreate+0x12>
    1710:	7823      	ldrb	r3, [r4, #0]
    1712:	b923      	cbnz	r3, 171e <svcMutexCreate+0x16>
    1714:	4620      	mov	r0, r4
    1716:	f7ff fb0f 	bl	d38 <rt_mut_init>
    171a:	4620      	mov	r0, r4
    171c:	bd10      	pop	{r4, pc}
    171e:	2000      	movs	r0, #0
    1720:	bd10      	pop	{r4, pc}

00001722 <svcMutexWait>:
    1722:	b570      	push	{r4, r5, r6, lr}
    1724:	f010 0403 	ands.w	r4, r0, #3
    1728:	4605      	mov	r5, r0
    172a:	460e      	mov	r6, r1
    172c:	d111      	bne.n	1752 <svcMutexWait+0x30>
    172e:	b180      	cbz	r0, 1752 <svcMutexWait+0x30>
    1730:	7803      	ldrb	r3, [r0, #0]
    1732:	2b03      	cmp	r3, #3
    1734:	d10d      	bne.n	1752 <svcMutexWait+0x30>
    1736:	4608      	mov	r0, r1
    1738:	f7ff fea8 	bl	148c <rt_ms2tick>
    173c:	4601      	mov	r1, r0
    173e:	4628      	mov	r0, r5
    1740:	f7ff fbc8 	bl	ed4 <rt_mut_wait>
    1744:	2801      	cmp	r0, #1
    1746:	d106      	bne.n	1756 <svcMutexWait+0x34>
    1748:	2e00      	cmp	r6, #0
    174a:	bf14      	ite	ne
    174c:	20c1      	movne	r0, #193	; 0xc1
    174e:	2081      	moveq	r0, #129	; 0x81
    1750:	bd70      	pop	{r4, r5, r6, pc}
    1752:	2080      	movs	r0, #128	; 0x80
    1754:	bd70      	pop	{r4, r5, r6, pc}
    1756:	4620      	mov	r0, r4
    1758:	bd70      	pop	{r4, r5, r6, pc}

0000175a <svcMutexRelease>:
    175a:	0782      	lsls	r2, r0, #30
    175c:	b508      	push	{r3, lr}
    175e:	d10a      	bne.n	1776 <svcMutexRelease+0x1c>
    1760:	b148      	cbz	r0, 1776 <svcMutexRelease+0x1c>
    1762:	7803      	ldrb	r3, [r0, #0]
    1764:	2b03      	cmp	r3, #3
    1766:	d106      	bne.n	1776 <svcMutexRelease+0x1c>
    1768:	f7ff fb44 	bl	df4 <rt_mut_release>
    176c:	28ff      	cmp	r0, #255	; 0xff
    176e:	bf0c      	ite	eq
    1770:	2081      	moveq	r0, #129	; 0x81
    1772:	2000      	movne	r0, #0
    1774:	bd08      	pop	{r3, pc}
    1776:	2080      	movs	r0, #128	; 0x80
    1778:	bd08      	pop	{r3, pc}

0000177a <svcMutexDelete>:
    177a:	b510      	push	{r4, lr}
    177c:	f010 0403 	ands.w	r4, r0, #3
    1780:	d107      	bne.n	1792 <svcMutexDelete+0x18>
    1782:	b130      	cbz	r0, 1792 <svcMutexDelete+0x18>
    1784:	7803      	ldrb	r3, [r0, #0]
    1786:	2b03      	cmp	r3, #3
    1788:	d103      	bne.n	1792 <svcMutexDelete+0x18>
    178a:	f7ff fadd 	bl	d48 <rt_mut_delete>
    178e:	4620      	mov	r0, r4
    1790:	bd10      	pop	{r4, pc}
    1792:	2080      	movs	r0, #128	; 0x80
    1794:	bd10      	pop	{r4, pc}
	...

00001798 <osMutexCreate>:
    1798:	b570      	push	{r4, r5, r6, lr}
    179a:	4605      	mov	r5, r0
    179c:	f3ef 8410 	mrs	r4, PRIMASK
    17a0:	b994      	cbnz	r4, 17c8 <osMutexCreate+0x30>
    17a2:	f3ef 8605 	mrs	r6, IPSR
    17a6:	b97e      	cbnz	r6, 17c8 <osMutexCreate+0x30>
    17a8:	f3ef 8414 	mrs	r4, CONTROL
    17ac:	07e4      	lsls	r4, r4, #31
    17ae:	d406      	bmi.n	17be <osMutexCreate+0x26>
    17b0:	4c06      	ldr	r4, [pc, #24]	; (17cc <osMutexCreate+0x34>)
    17b2:	7824      	ldrb	r4, [r4, #0]
    17b4:	b91c      	cbnz	r4, 17be <osMutexCreate+0x26>
    17b6:	e8bd 4070 	ldmia.w	sp!, {r4, r5, r6, lr}
    17ba:	f7ff bfa5 	b.w	1708 <svcMutexCreate>
    17be:	4628      	mov	r0, r5
    17c0:	f8df c00c 	ldr.w	r12, [pc, #12]	; 17d0 <osMutexCreate+0x38>
    17c4:	df00      	svc	0
    17c6:	bd70      	pop	{r4, r5, r6, pc}
    17c8:	2000      	movs	r0, #0
    17ca:	bd70      	pop	{r4, r5, r6, pc}
    17cc:	10002115 	.word	0x10002115
    17d0:	00001709 	.word	0x00001709

000017d4 <osMutexWait>:
    17d4:	b510      	push	{r4, lr}
    17d6:	f3ef 8410 	mrs	r4, PRIMASK
    17da:	b934      	cbnz	r4, 17ea <osMutexWait+0x16>
    17dc:	f3ef 8405 	mrs	r4, IPSR
    17e0:	b91c      	cbnz	r4, 17ea <osMutexWait+0x16>
    17e2:	f8df c00c 	ldr.w	r12, [pc, #12]	; 17f0 <osMutexWait+0x1c>
    17e6:	df00      	svc	0
    17e8:	bd10      	pop	{r4, pc}
    17ea:	2082      	movs	r0, #130	; 0x82
    17ec:	bd10      	pop	{r4, pc}
    17ee:	0000      	.short	0x0000
    17f0:	00001723 	.word	0x00001723

000017f4 <osThreadExit>:
    17f4:	4808      	ldr	r0, [pc, #32]	; (1818 <osThreadExit+0x24>)
    17f6:	b508      	push	{r3, lr}
    17f8:	f04f 31ff 	mov.w	r1, #4294967295	; 0xffffffff
    17fc:	6800      	ldr	r0, [r0, #0]
    17fe:	f7ff ffe9 	bl	17d4 <osMutexWait>
    1802:	f8df c018 	ldr.w	r12, [pc, #24]	; 181c <osThreadExit+0x28>
    1806:	df00      	svc	0
    1808:	4604      	mov	r4, r0
    180a:	f7ff f95d 	bl	ac8 <sysThreadTerminate>
    180e:	4620      	mov	r0, r4
    1810:	f8df c00c 	ldr.w	r12, [pc, #12]	; 1820 <osThreadExit+0x2c>
    1814:	df00      	svc	0
    1816:	e7fe      	b.n	1816 <osThreadExit+0x22>
    1818:	10002110 	.word	0x10002110
    181c:	00001659 	.word	0x00001659
    1820:	00001671 	.word	0x00001671

00001824 <osMutexRelease>:
    1824:	b510      	push	{r4, lr}
    1826:	f3ef 8410 	mrs	r4, PRIMASK
    182a:	b934      	cbnz	r4, 183a <osMutexRelease+0x16>
    182c:	f3ef 8405 	mrs	r4, IPSR
    1830:	b91c      	cbnz	r4, 183a <osMutexRelease+0x16>
    1832:	f8df c00c 	ldr.w	r12, [pc, #12]	; 1840 <osMutexRelease+0x1c>
    1836:	df00      	svc	0
    1838:	bd10      	pop	{r4, pc}
    183a:	2082      	movs	r0, #130	; 0x82
    183c:	bd10      	pop	{r4, pc}
    183e:	0000      	.short	0x0000
    1840:	0000175b 	.word	0x0000175b

00001844 <osThreadContextCreate>:
    1844:	e92d 41f0 	stmdb	sp!, {r4, r5, r6, r7, r8, lr}
    1848:	4680      	mov	r8, r0
    184a:	460f      	mov	r7, r1
    184c:	4616      	mov	r6, r2
    184e:	f3ef 8410 	mrs	r4, PRIMASK
    1852:	bb04      	cbnz	r4, 1896 <osThreadContextCreate+0x52>
    1854:	f3ef 8305 	mrs	r3, IPSR
    1858:	b9d3      	cbnz	r3, 1890 <osThreadContextCreate+0x4c>
    185a:	f3ef 8314 	mrs	r3, CONTROL
    185e:	07db      	lsls	r3, r3, #31
    1860:	d406      	bmi.n	1870 <osThreadContextCreate+0x2c>
    1862:	4b0e      	ldr	r3, [pc, #56]	; (189c <osThreadContextCreate+0x58>)
    1864:	781b      	ldrb	r3, [r3, #0]
    1866:	b91b      	cbnz	r3, 1870 <osThreadContextCreate+0x2c>
    1868:	e8bd 41f0 	ldmia.w	sp!, {r4, r5, r6, r7, r8, lr}
    186c:	f7ff bebe 	b.w	15ec <svcThreadCreate>
    1870:	4d0b      	ldr	r5, [pc, #44]	; (18a0 <osThreadContextCreate+0x5c>)
    1872:	f04f 31ff 	mov.w	r1, #4294967295	; 0xffffffff
    1876:	6828      	ldr	r0, [r5, #0]
    1878:	f7ff ffac 	bl	17d4 <osMutexWait>
    187c:	4640      	mov	r0, r8
    187e:	4639      	mov	r1, r7
    1880:	4632      	mov	r2, r6
    1882:	f8df c020 	ldr.w	r12, [pc, #32]	; 18a4 <osThreadContextCreate+0x60>
    1886:	df00      	svc	0
    1888:	4604      	mov	r4, r0
    188a:	6828      	ldr	r0, [r5, #0]
    188c:	f7ff ffca 	bl	1824 <osMutexRelease>
    1890:	4620      	mov	r0, r4
    1892:	e8bd 81f0 	ldmia.w	sp!, {r4, r5, r6, r7, r8, pc}
    1896:	2400      	movs	r4, #0
    1898:	e7fa      	b.n	1890 <osThreadContextCreate+0x4c>
    189a:	bf00      	nop
    189c:	10002115 	.word	0x10002115
    18a0:	10002110 	.word	0x10002110
    18a4:	000015ed 	.word	0x000015ed

000018a8 <osThreadCreate>:
    18a8:	2200      	movs	r2, #0
    18aa:	f7ff bfcb 	b.w	1844 <osThreadContextCreate>
	...

000018b0 <osMutexDelete>:
    18b0:	b510      	push	{r4, lr}
    18b2:	f3ef 8410 	mrs	r4, PRIMASK
    18b6:	b934      	cbnz	r4, 18c6 <osMutexDelete+0x16>
    18b8:	f3ef 8405 	mrs	r4, IPSR
    18bc:	b91c      	cbnz	r4, 18c6 <osMutexDelete+0x16>
    18be:	f8df c00c 	ldr.w	r12, [pc, #12]	; 18cc <osMutexDelete+0x1c>
    18c2:	df00      	svc	0
    18c4:	bd10      	pop	{r4, pc}
    18c6:	2082      	movs	r0, #130	; 0x82
    18c8:	bd10      	pop	{r4, pc}
    18ca:	0000      	.short	0x0000
    18cc:	0000177b 	.word	0x0000177b

000018d0 <svcMessageCreate>:
    18d0:	b510      	push	{r4, lr}
    18d2:	4604      	mov	r4, r0
    18d4:	b160      	cbz	r0, 18f0 <svcMessageCreate+0x20>
    18d6:	6801      	ldr	r1, [r0, #0]
    18d8:	b151      	cbz	r1, 18f0 <svcMessageCreate+0x20>
    18da:	6840      	ldr	r0, [r0, #4]
    18dc:	b148      	cbz	r0, 18f2 <svcMessageCreate+0x22>
    18de:	7803      	ldrb	r3, [r0, #0]
    18e0:	b933      	cbnz	r3, 18f0 <svcMessageCreate+0x20>
    18e2:	3104      	adds	r1, #4
    18e4:	0089      	lsls	r1, r1, #2
    18e6:	b289      	uxth	r1, r1
    18e8:	f7ff fc52 	bl	1190 <rt_mbx_init>
    18ec:	6860      	ldr	r0, [r4, #4]
    18ee:	bd10      	pop	{r4, pc}
    18f0:	2000      	movs	r0, #0
    18f2:	bd10      	pop	{r4, pc}

000018f4 <svcKernelInitialize>:
    18f4:	b538      	push	{r3, r4, r5, lr}
    18f6:	4c11      	ldr	r4, [pc, #68]	; (193c <svcKernelInitialize+0x48>)
    18f8:	7823      	ldrb	r3, [r4, #0]
    18fa:	b90b      	cbnz	r3, 1900 <svcKernelInitialize+0xc>
    18fc:	f000 faa6 	bl	1e4c <rt_sys_init>
    1900:	22ff      	movs	r2, #255	; 0xff
    1902:	4b0f      	ldr	r3, [pc, #60]	; (1940 <svcKernelInitialize+0x4c>)
    1904:	7825      	ldrb	r5, [r4, #0]
    1906:	681b      	ldr	r3, [r3, #0]
    1908:	709a      	strb	r2, [r3, #2]
    190a:	b98d      	cbnz	r5, 1930 <svcKernelInitialize+0x3c>
    190c:	4629      	mov	r1, r5
    190e:	480d      	ldr	r0, [pc, #52]	; (1944 <svcKernelInitialize+0x50>)
    1910:	f7ff ffde 	bl	18d0 <svcMessageCreate>
    1914:	4b0c      	ldr	r3, [pc, #48]	; (1948 <svcKernelInitialize+0x54>)
    1916:	462a      	mov	r2, r5
    1918:	6018      	str	r0, [r3, #0]
    191a:	4629      	mov	r1, r5
    191c:	480b      	ldr	r0, [pc, #44]	; (194c <svcKernelInitialize+0x58>)
    191e:	f7ff fe65 	bl	15ec <svcThreadCreate>
    1922:	4b0b      	ldr	r3, [pc, #44]	; (1950 <svcKernelInitialize+0x5c>)
    1924:	6018      	str	r0, [r3, #0]
    1926:	480b      	ldr	r0, [pc, #44]	; (1954 <svcKernelInitialize+0x60>)
    1928:	f7ff ff36 	bl	1798 <osMutexCreate>
    192c:	4b0a      	ldr	r3, [pc, #40]	; (1958 <svcKernelInitialize+0x64>)
    192e:	6018      	str	r0, [r3, #0]
    1930:	2301      	movs	r3, #1
    1932:	2000      	movs	r0, #0
    1934:	7023      	strb	r3, [r4, #0]
    1936:	4b09      	ldr	r3, [pc, #36]	; (195c <svcKernelInitialize+0x68>)
    1938:	7018      	strb	r0, [r3, #0]
    193a:	bd38      	pop	{r3, r4, r5, pc}
    193c:	10002114 	.word	0x10002114
    1940:	1000211c 	.word	0x1000211c
    1944:	00008350 	.word	0x00008350
    1948:	100019d8 	.word	0x100019d8
    194c:	0000836c 	.word	0x0000836c
    1950:	100020cc 	.word	0x100020cc
    1954:	00008384 	.word	0x00008384
    1958:	10002110 	.word	0x10002110
    195c:	10002115 	.word	0x10002115

00001960 <osKernelInitialize>:
    1960:	b510      	push	{r4, lr}
    1962:	f3ef 8410 	mrs	r4, PRIMASK
    1966:	b974      	cbnz	r4, 1986 <osKernelInitialize+0x26>
    1968:	f3ef 8405 	mrs	r4, IPSR
    196c:	b95c      	cbnz	r4, 1986 <osKernelInitialize+0x26>
    196e:	f3ef 8414 	mrs	r4, CONTROL
    1972:	07e4      	lsls	r4, r4, #31
    1974:	d403      	bmi.n	197e <osKernelInitialize+0x1e>
    1976:	e8bd 4010 	ldmia.w	sp!, {r4, lr}
    197a:	f7ff bfbb 	b.w	18f4 <svcKernelInitialize>
    197e:	f8df c00c 	ldr.w	r12, [pc, #12]	; 198c <osKernelInitialize+0x2c>
    1982:	df00      	svc	0
    1984:	bd10      	pop	{r4, pc}
    1986:	2082      	movs	r0, #130	; 0x82
    1988:	bd10      	pop	{r4, pc}
    198a:	0000      	.short	0x0000
    198c:	000018f5 	.word	0x000018f5

00001990 <svcMessageGet>:
    1990:	e92d 41ff 	stmdb	sp!, {r0, r1, r2, r3, r4, r5, r6, r7, r8, lr}
    1994:	460c      	mov	r4, r1
    1996:	4680      	mov	r8, r0
    1998:	b318      	cbz	r0, 19e2 <svcMessageGet+0x52>
    199a:	7803      	ldrb	r3, [r0, #0]
    199c:	2b01      	cmp	r3, #1
    199e:	d125      	bne.n	19ec <svcMessageGet+0x5c>
    19a0:	4608      	mov	r0, r1
    19a2:	f7ff fd73 	bl	148c <rt_ms2tick>
    19a6:	a902      	add	r1, sp, #8
    19a8:	4602      	mov	r2, r0
    19aa:	4640      	mov	r0, r8
    19ac:	f7ff fbfe 	bl	11ac <rt_mbx_wait>
    19b0:	2801      	cmp	r0, #1
    19b2:	d111      	bne.n	19d8 <svcMessageGet+0x48>
    19b4:	2000      	movs	r0, #0
    19b6:	2c00      	cmp	r4, #0
    19b8:	4602      	mov	r2, r0
    19ba:	4603      	mov	r3, r0
    19bc:	bf18      	it	ne
    19be:	2040      	movne	r0, #64	; 0x40
    19c0:	9902      	ldr	r1, [sp, #8]
    19c2:	4604      	mov	r4, r0
    19c4:	460d      	mov	r5, r1
    19c6:	4616      	mov	r6, r2
    19c8:	461f      	mov	r7, r3
    19ca:	4620      	mov	r0, r4
    19cc:	4629      	mov	r1, r5
    19ce:	4632      	mov	r2, r6
    19d0:	463b      	mov	r3, r7
    19d2:	b004      	add	sp, #16
    19d4:	e8bd 81f0 	ldmia.w	sp!, {r4, r5, r6, r7, r8, pc}
    19d8:	2000      	movs	r0, #0
    19da:	4602      	mov	r2, r0
    19dc:	4603      	mov	r3, r0
    19de:	2010      	movs	r0, #16
    19e0:	e7ee      	b.n	19c0 <svcMessageGet+0x30>
    19e2:	2480      	movs	r4, #128	; 0x80
    19e4:	4605      	mov	r5, r0
    19e6:	4606      	mov	r6, r0
    19e8:	4607      	mov	r7, r0
    19ea:	e7ee      	b.n	19ca <svcMessageGet+0x3a>
    19ec:	2500      	movs	r5, #0
    19ee:	2480      	movs	r4, #128	; 0x80
    19f0:	462e      	mov	r6, r5
    19f2:	462f      	mov	r7, r5
    19f4:	e7e9      	b.n	19ca <svcMessageGet+0x3a>

000019f6 <isrMessagePut>:
    19f6:	b570      	push	{r4, r5, r6, lr}
    19f8:	460e      	mov	r6, r1
    19fa:	4614      	mov	r4, r2
    19fc:	4605      	mov	r5, r0
    19fe:	b160      	cbz	r0, 1a1a <isrMessagePut+0x24>
    1a00:	b95a      	cbnz	r2, 1a1a <isrMessagePut+0x24>
    1a02:	7803      	ldrb	r3, [r0, #0]
    1a04:	2b01      	cmp	r3, #1
    1a06:	d108      	bne.n	1a1a <isrMessagePut+0x24>
    1a08:	f7ff fc26 	bl	1258 <rt_mbx_check>
    1a0c:	b138      	cbz	r0, 1a1e <isrMessagePut+0x28>
    1a0e:	4628      	mov	r0, r5
    1a10:	4631      	mov	r1, r6
    1a12:	f7ff fc25 	bl	1260 <isr_mbx_send>
    1a16:	4620      	mov	r0, r4
    1a18:	bd70      	pop	{r4, r5, r6, pc}
    1a1a:	2080      	movs	r0, #128	; 0x80
    1a1c:	bd70      	pop	{r4, r5, r6, pc}
    1a1e:	2081      	movs	r0, #129	; 0x81
    1a20:	bd70      	pop	{r4, r5, r6, pc}
	...

00001a24 <sysTimerTick>:
    1a24:	b5f8      	push	{r3, r4, r5, r6, r7, lr}
    1a26:	4e11      	ldr	r6, [pc, #68]	; (1a6c <sysTimerTick+0x48>)
    1a28:	6834      	ldr	r4, [r6, #0]
    1a2a:	b12c      	cbz	r4, 1a38 <sysTimerTick+0x14>
    1a2c:	68a3      	ldr	r3, [r4, #8]
    1a2e:	4f10      	ldr	r7, [pc, #64]	; (1a70 <sysTimerTick+0x4c>)
    1a30:	3b01      	subs	r3, #1
    1a32:	60a3      	str	r3, [r4, #8]
    1a34:	68a2      	ldr	r2, [r4, #8]
    1a36:	b102      	cbz	r2, 1a3a <sysTimerTick+0x16>
    1a38:	bdf8      	pop	{r3, r4, r5, r6, r7, pc}
    1a3a:	6825      	ldr	r5, [r4, #0]
    1a3c:	4621      	mov	r1, r4
    1a3e:	6838      	ldr	r0, [r7, #0]
    1a40:	6035      	str	r5, [r6, #0]
    1a42:	f7ff ffd8 	bl	19f6 <isrMessagePut>
    1a46:	b110      	cbz	r0, 1a4e <sysTimerTick+0x2a>
    1a48:	2004      	movs	r0, #4
    1a4a:	f7ff f82f 	bl	aac <os_error>
    1a4e:	7963      	ldrb	r3, [r4, #5]
    1a50:	2b01      	cmp	r3, #1
    1a52:	d107      	bne.n	1a64 <sysTimerTick+0x40>
    1a54:	68e1      	ldr	r1, [r4, #12]
    1a56:	4620      	mov	r0, r4
    1a58:	f7ff fcfe 	bl	1458 <rt_timer_insert>
    1a5c:	2d00      	cmp	r5, #0
    1a5e:	d0eb      	beq.n	1a38 <sysTimerTick+0x14>
    1a60:	462c      	mov	r4, r5
    1a62:	e7e7      	b.n	1a34 <sysTimerTick+0x10>
    1a64:	2301      	movs	r3, #1
    1a66:	7123      	strb	r3, [r4, #4]
    1a68:	e7f8      	b.n	1a5c <sysTimerTick+0x38>
    1a6a:	bf00      	nop
    1a6c:	10002118 	.word	0x10002118
    1a70:	100019d8 	.word	0x100019d8

00001a74 <isrMessageGet>:
    1a74:	b57f      	push	{r0, r1, r2, r3, r4, r5, r6, lr}
    1a76:	4604      	mov	r4, r0
    1a78:	4616      	mov	r6, r2
    1a7a:	4608      	mov	r0, r1
    1a7c:	b101      	cbz	r1, 1a80 <isrMessageGet+0xc>
    1a7e:	b122      	cbz	r2, 1a8a <isrMessageGet+0x16>
    1a80:	2380      	movs	r3, #128	; 0x80
    1a82:	6023      	str	r3, [r4, #0]
    1a84:	4620      	mov	r0, r4
    1a86:	b004      	add	sp, #16
    1a88:	bd70      	pop	{r4, r5, r6, pc}
    1a8a:	780b      	ldrb	r3, [r1, #0]
    1a8c:	2b01      	cmp	r3, #1
    1a8e:	d1f7      	bne.n	1a80 <isrMessageGet+0xc>
    1a90:	a902      	add	r1, sp, #8
    1a92:	f7ff fbec 	bl	126e <isr_mbx_receive>
    1a96:	2804      	cmp	r0, #4
    1a98:	bf08      	it	eq
    1a9a:	2310      	moveq	r3, #16
    1a9c:	ad01      	add	r5, sp, #4
    1a9e:	bf14      	ite	ne
    1aa0:	9601      	strne	r6, [sp, #4]
    1aa2:	9301      	streq	r3, [sp, #4]
    1aa4:	e895 0007 	ldmia.w	r5, {r0, r1, r2}
    1aa8:	e884 0007 	stmia.w	r4, {r0, r1, r2}
    1aac:	e7ea      	b.n	1a84 <isrMessageGet+0x10>
	...

00001ab0 <osMessageGet>:
    1ab0:	b538      	push	{r3, r4, r5, lr}
    1ab2:	4604      	mov	r4, r0
    1ab4:	4615      	mov	r5, r2
    1ab6:	f3ef 8010 	mrs	r0, PRIMASK
    1aba:	b910      	cbnz	r0, 1ac2 <osMessageGet+0x12>
    1abc:	f3ef 8005 	mrs	r0, IPSR
    1ac0:	b128      	cbz	r0, 1ace <osMessageGet+0x1e>
    1ac2:	462a      	mov	r2, r5
    1ac4:	4620      	mov	r0, r4
    1ac6:	f7ff ffd5 	bl	1a74 <isrMessageGet>
    1aca:	4620      	mov	r0, r4
    1acc:	bd38      	pop	{r3, r4, r5, pc}
    1ace:	4608      	mov	r0, r1
    1ad0:	4611      	mov	r1, r2
    1ad2:	f8df c00c 	ldr.w	r12, [pc, #12]	; 1ae0 <osMessageGet+0x30>
    1ad6:	df00      	svc	0
    1ad8:	e884 0007 	stmia.w	r4, {r0, r1, r2}
    1adc:	e7f5      	b.n	1aca <osMessageGet+0x1a>
    1ade:	0000      	.short	0x0000
    1ae0:	00001991 	.word	0x00001991

00001ae4 <osTimerThread>:
    1ae4:	b57f      	push	{r0, r1, r2, r3, r4, r5, r6, lr}
    1ae6:	4c0a      	ldr	r4, [pc, #40]	; (1b10 <osTimerThread+0x2c>)
    1ae8:	f04f 32ff 	mov.w	r2, #4294967295	; 0xffffffff
    1aec:	6821      	ldr	r1, [r4, #0]
    1aee:	a803      	add	r0, sp, #12
    1af0:	f7ff ffde 	bl	1ab0 <osMessageGet>
    1af4:	9b03      	ldr	r3, [sp, #12]
    1af6:	2b10      	cmp	r3, #16
    1af8:	d1f6      	bne.n	1ae8 <osTimerThread+0x4>
    1afa:	9904      	ldr	r1, [sp, #16]
    1afc:	a801      	add	r0, sp, #4
    1afe:	f7ff fdf7 	bl	16f0 <osTimerCall>
    1b02:	9b01      	ldr	r3, [sp, #4]
    1b04:	2b00      	cmp	r3, #0
    1b06:	d0ef      	beq.n	1ae8 <osTimerThread+0x4>
    1b08:	9802      	ldr	r0, [sp, #8]
    1b0a:	4798      	blx	r3
    1b0c:	e7ec      	b.n	1ae8 <osTimerThread+0x4>
    1b0e:	bf00      	nop
    1b10:	100019d8 	.word	0x100019d8

00001b14 <rt_switch_req>:
    1b14:	4b05      	ldr	r3, [pc, #20]	; (1b2c <rt_switch_req+0x18>)
    1b16:	6058      	str	r0, [r3, #4]
    1b18:	2302      	movs	r3, #2
    1b1a:	7043      	strb	r3, [r0, #1]
    1b1c:	4b04      	ldr	r3, [pc, #16]	; (1b30 <rt_switch_req+0x1c>)
    1b1e:	681b      	ldr	r3, [r3, #0]
    1b20:	b11b      	cbz	r3, 1b2a <rt_switch_req+0x16>
    1b22:	691b      	ldr	r3, [r3, #16]
    1b24:	b10b      	cbz	r3, 1b2a <rt_switch_req+0x16>
    1b26:	6bc0      	ldr	r0, [r0, #60]	; 0x3c
    1b28:	4718      	bx	r3
    1b2a:	4770      	bx	lr
    1b2c:	1000211c 	.word	0x1000211c
    1b30:	10002104 	.word	0x10002104

00001b34 <rt_dispatch.part.0>:
    1b34:	b508      	push	{r3, lr}
    1b36:	4803      	ldr	r0, [pc, #12]	; (1b44 <rt_dispatch.part.0+0x10>)
    1b38:	f7ff f81e 	bl	b78 <rt_get_first>
    1b3c:	e8bd 4008 	ldmia.w	sp!, {r3, lr}
    1b40:	f7ff bfe8 	b.w	1b14 <rt_switch_req>
    1b44:	100020d0 	.word	0x100020d0

00001b48 <rt_dispatch>:
    1b48:	b570      	push	{r4, r5, r6, lr}
    1b4a:	4604      	mov	r4, r0
    1b4c:	b918      	cbnz	r0, 1b56 <rt_dispatch+0xe>
    1b4e:	e8bd 4070 	ldmia.w	sp!, {r4, r5, r6, lr}
    1b52:	f7ff bfef 	b.w	1b34 <rt_dispatch.part.0>
    1b56:	4e0b      	ldr	r6, [pc, #44]	; (1b84 <rt_dispatch+0x3c>)
    1b58:	78a2      	ldrb	r2, [r4, #2]
    1b5a:	6830      	ldr	r0, [r6, #0]
    1b5c:	2501      	movs	r5, #1
    1b5e:	7883      	ldrb	r3, [r0, #2]
    1b60:	429a      	cmp	r2, r3
    1b62:	d908      	bls.n	1b76 <rt_dispatch+0x2e>
    1b64:	f7ff f81a 	bl	b9c <rt_put_rdy_first>
    1b68:	6833      	ldr	r3, [r6, #0]
    1b6a:	4620      	mov	r0, r4
    1b6c:	705d      	strb	r5, [r3, #1]
    1b6e:	e8bd 4070 	ldmia.w	sp!, {r4, r5, r6, lr}
    1b72:	f7ff bfcf 	b.w	1b14 <rt_switch_req>
    1b76:	7065      	strb	r5, [r4, #1]
    1b78:	4621      	mov	r1, r4
    1b7a:	e8bd 4070 	ldmia.w	sp!, {r4, r5, r6, lr}
    1b7e:	4802      	ldr	r0, [pc, #8]	; (1b88 <rt_dispatch+0x40>)
    1b80:	f7fe bfe2 	b.w	b48 <rt_put_prio>
    1b84:	1000211c 	.word	0x1000211c
    1b88:	100020d0 	.word	0x100020d0

00001b8c <rt_block>:
    1b8c:	b538      	push	{r3, r4, r5, lr}
    1b8e:	460d      	mov	r5, r1
    1b90:	4601      	mov	r1, r0
    1b92:	b180      	cbz	r0, 1bb6 <rt_block+0x2a>
    1b94:	f64f 73ff 	movw	r3, #65535	; 0xffff
    1b98:	4298      	cmp	r0, r3
    1b9a:	4c07      	ldr	r4, [pc, #28]	; (1bb8 <rt_block+0x2c>)
    1b9c:	d002      	beq.n	1ba4 <rt_block+0x18>
    1b9e:	6820      	ldr	r0, [r4, #0]
    1ba0:	f7ff f806 	bl	bb0 <rt_put_dly>
    1ba4:	6823      	ldr	r3, [r4, #0]
    1ba6:	4805      	ldr	r0, [pc, #20]	; (1bbc <rt_block+0x30>)
    1ba8:	705d      	strb	r5, [r3, #1]
    1baa:	f7fe ffe5 	bl	b78 <rt_get_first>
    1bae:	e8bd 4038 	ldmia.w	sp!, {r3, r4, r5, lr}
    1bb2:	f7ff bfaf 	b.w	1b14 <rt_switch_req>
    1bb6:	bd38      	pop	{r3, r4, r5, pc}
    1bb8:	1000211c 	.word	0x1000211c
    1bbc:	100020d0 	.word	0x100020d0

00001bc0 <rt_tsk_self>:
    1bc0:	4b02      	ldr	r3, [pc, #8]	; (1bcc <rt_tsk_self+0xc>)
    1bc2:	6818      	ldr	r0, [r3, #0]
    1bc4:	b100      	cbz	r0, 1bc8 <rt_tsk_self+0x8>
    1bc6:	78c0      	ldrb	r0, [r0, #3]
    1bc8:	4770      	bx	lr
    1bca:	bf00      	nop
    1bcc:	1000211c 	.word	0x1000211c

00001bd0 <rt_tsk_prio>:
    1bd0:	b510      	push	{r4, lr}
    1bd2:	b9a8      	cbnz	r0, 1c00 <rt_tsk_prio+0x30>
    1bd4:	4b19      	ldr	r3, [pc, #100]	; (1c3c <rt_tsk_prio+0x6c>)
    1bd6:	681b      	ldr	r3, [r3, #0]
    1bd8:	7099      	strb	r1, [r3, #2]
    1bda:	f883 1024 	strb.w	r1, [r3, #36]	; 0x24
    1bde:	4818      	ldr	r0, [pc, #96]	; (1c40 <rt_tsk_prio+0x70>)
    1be0:	6843      	ldr	r3, [r0, #4]
    1be2:	789b      	ldrb	r3, [r3, #2]
    1be4:	428b      	cmp	r3, r1
    1be6:	d801      	bhi.n	1bec <rt_tsk_prio+0x1c>
    1be8:	2000      	movs	r0, #0
    1bea:	bd10      	pop	{r4, pc}
    1bec:	4c13      	ldr	r4, [pc, #76]	; (1c3c <rt_tsk_prio+0x6c>)
    1bee:	6821      	ldr	r1, [r4, #0]
    1bf0:	f7fe ffaa 	bl	b48 <rt_put_prio>
    1bf4:	2201      	movs	r2, #1
    1bf6:	6823      	ldr	r3, [r4, #0]
    1bf8:	705a      	strb	r2, [r3, #1]
    1bfa:	f7ff ff9b 	bl	1b34 <rt_dispatch.part.0>
    1bfe:	e7f3      	b.n	1be8 <rt_tsk_prio+0x18>
    1c00:	4b10      	ldr	r3, [pc, #64]	; (1c44 <rt_tsk_prio+0x74>)
    1c02:	881b      	ldrh	r3, [r3, #0]
    1c04:	4298      	cmp	r0, r3
    1c06:	d817      	bhi.n	1c38 <rt_tsk_prio+0x68>
    1c08:	4b0f      	ldr	r3, [pc, #60]	; (1c48 <rt_tsk_prio+0x78>)
    1c0a:	3801      	subs	r0, #1
    1c0c:	f853 4020 	ldr.w	r4, [r3, r0, lsl #2]
    1c10:	b194      	cbz	r4, 1c38 <rt_tsk_prio+0x68>
    1c12:	4b0a      	ldr	r3, [pc, #40]	; (1c3c <rt_tsk_prio+0x6c>)
    1c14:	70a1      	strb	r1, [r4, #2]
    1c16:	681b      	ldr	r3, [r3, #0]
    1c18:	f884 1024 	strb.w	r1, [r4, #36]	; 0x24
    1c1c:	429c      	cmp	r4, r3
    1c1e:	d0de      	beq.n	1bde <rt_tsk_prio+0xe>
    1c20:	4620      	mov	r0, r4
    1c22:	f7ff f837 	bl	c94 <rt_resort_prio>
    1c26:	7863      	ldrb	r3, [r4, #1]
    1c28:	2b01      	cmp	r3, #1
    1c2a:	d1dd      	bne.n	1be8 <rt_tsk_prio+0x18>
    1c2c:	4804      	ldr	r0, [pc, #16]	; (1c40 <rt_tsk_prio+0x70>)
    1c2e:	f7fe ffa3 	bl	b78 <rt_get_first>
    1c32:	f7ff ff89 	bl	1b48 <rt_dispatch>
    1c36:	e7d7      	b.n	1be8 <rt_tsk_prio+0x18>
    1c38:	20ff      	movs	r0, #255	; 0xff
    1c3a:	bd10      	pop	{r4, pc}
    1c3c:	1000211c 	.word	0x1000211c
    1c40:	100020d0 	.word	0x100020d0
    1c44:	0000834c 	.word	0x0000834c
    1c48:	10001918 	.word	0x10001918

00001c4c <rt_tsk_create>:
    1c4c:	e92d 47f0 	stmdb	sp!, {r4, r5, r6, r7, r8, r9, r10, lr}
    1c50:	460d      	mov	r5, r1
    1c52:	f011 0fff 	tst.w	r1, #255	; 0xff
    1c56:	4680      	mov	r8, r0
    1c58:	4823      	ldr	r0, [pc, #140]	; (1ce8 <rt_tsk_create+0x9c>)
    1c5a:	4616      	mov	r6, r2
    1c5c:	469a      	mov	r10, r3
    1c5e:	bf08      	it	eq
    1c60:	3501      	addeq	r5, #1
    1c62:	f7ff fa74 	bl	114e <rt_alloc_box>
    1c66:	4604      	mov	r4, r0
    1c68:	b920      	cbnz	r0, 1c74 <rt_tsk_create+0x28>
    1c6a:	f04f 0900 	mov.w	r9, #0
    1c6e:	4648      	mov	r0, r9
    1c70:	e8bd 87f0 	ldmia.w	sp!, {r4, r5, r6, r7, r8, r9, r10, pc}
    1c74:	2100      	movs	r1, #0
    1c76:	4b1d      	ldr	r3, [pc, #116]	; (1cec <rt_tsk_create+0xa0>)
    1c78:	6306      	str	r6, [r0, #48]	; 0x30
    1c7a:	881b      	ldrh	r3, [r3, #0]
    1c7c:	0a28      	lsrs	r0, r5, #8
    1c7e:	4e1c      	ldr	r6, [pc, #112]	; (1cf0 <rt_tsk_create+0xa4>)
    1c80:	62a0      	str	r0, [r4, #40]	; 0x28
    1c82:	428b      	cmp	r3, r1
    1c84:	f101 0901 	add.w	r9, r1, #1
    1c88:	d0ef      	beq.n	1c6a <rt_tsk_create+0x1e>
    1c8a:	eb06 0289 	add.w	r2, r6, r9, lsl #2
    1c8e:	f852 2c04 	ldr.w	r2, [r2, #-4]
    1c92:	460f      	mov	r7, r1
    1c94:	4649      	mov	r1, r9
    1c96:	2a00      	cmp	r2, #0
    1c98:	d1f3      	bne.n	1c82 <rt_tsk_create+0x36>
    1c9a:	2301      	movs	r3, #1
    1c9c:	b2ed      	uxtb	r5, r5
    1c9e:	f884 9003 	strb.w	r9, [r4, #3]
    1ca2:	f8c4 a01c 	str.w	r10, [r4, #28]
    1ca6:	f8c4 a038 	str.w	r10, [r4, #56]	; 0x38
    1caa:	7022      	strb	r2, [r4, #0]
    1cac:	7063      	strb	r3, [r4, #1]
    1cae:	70a5      	strb	r5, [r4, #2]
    1cb0:	f884 5024 	strb.w	r5, [r4, #36]	; 0x24
    1cb4:	6062      	str	r2, [r4, #4]
    1cb6:	60a2      	str	r2, [r4, #8]
    1cb8:	60e2      	str	r2, [r4, #12]
    1cba:	6122      	str	r2, [r4, #16]
    1cbc:	6222      	str	r2, [r4, #32]
    1cbe:	82a2      	strh	r2, [r4, #20]
    1cc0:	82e2      	strh	r2, [r4, #22]
    1cc2:	8322      	strh	r2, [r4, #24]
    1cc4:	8362      	strh	r2, [r4, #26]
    1cc6:	f884 2025 	strb.w	r2, [r4, #37]	; 0x25
    1cca:	b918      	cbnz	r0, 1cd4 <rt_tsk_create+0x88>
    1ccc:	4809      	ldr	r0, [pc, #36]	; (1cf4 <rt_tsk_create+0xa8>)
    1cce:	f7ff fa3e 	bl	114e <rt_alloc_box>
    1cd2:	6320      	str	r0, [r4, #48]	; 0x30
    1cd4:	4620      	mov	r0, r4
    1cd6:	4641      	mov	r1, r8
    1cd8:	f7ff f92a 	bl	f30 <rt_init_stack>
    1cdc:	4620      	mov	r0, r4
    1cde:	f846 4027 	str.w	r4, [r6, r7, lsl #2]
    1ce2:	f7ff ff31 	bl	1b48 <rt_dispatch>
    1ce6:	e7c2      	b.n	1c6e <rt_tsk_create+0x22>
    1ce8:	10001d00 	.word	0x10001d00
    1cec:	0000834c 	.word	0x0000834c
    1cf0:	10001918 	.word	0x10001918
    1cf4:	10001708 	.word	0x10001708

00001cf8 <rt_tsk_delete>:
    1cf8:	e92d 4ff8 	stmdb	sp!, {r3, r4, r5, r6, r7, r8, r9, r10, r11, lr}
    1cfc:	4d4d      	ldr	r5, [pc, #308]	; (1e34 <rt_tsk_delete+0x13c>)
    1cfe:	b118      	cbz	r0, 1d08 <rt_tsk_delete+0x10>
    1d00:	682b      	ldr	r3, [r5, #0]
    1d02:	78db      	ldrb	r3, [r3, #3]
    1d04:	4298      	cmp	r0, r3
    1d06:	d141      	bne.n	1d8c <rt_tsk_delete+0x94>
    1d08:	2300      	movs	r3, #0
    1d0a:	682c      	ldr	r4, [r5, #0]
    1d0c:	2701      	movs	r7, #1
    1d0e:	7063      	strb	r3, [r4, #1]
    1d10:	f001 fdcb 	bl	38aa <rt_get_PSP>
    1d14:	62e0      	str	r0, [r4, #44]	; 0x2c
    1d16:	f7ff f9e3 	bl	10e0 <rt_stk_check>
    1d1a:	682b      	ldr	r3, [r5, #0]
    1d1c:	f8df 8128 	ldr.w	r8, [pc, #296]	; 1e48 <rt_tsk_delete+0x150>
    1d20:	6a1c      	ldr	r4, [r3, #32]
    1d22:	b9a4      	cbnz	r4, 1d4e <rt_tsk_delete+0x56>
    1d24:	682a      	ldr	r2, [r5, #0]
    1d26:	4944      	ldr	r1, [pc, #272]	; (1e38 <rt_tsk_delete+0x140>)
    1d28:	78d3      	ldrb	r3, [r2, #3]
    1d2a:	4844      	ldr	r0, [pc, #272]	; (1e3c <rt_tsk_delete+0x144>)
    1d2c:	3b01      	subs	r3, #1
    1d2e:	f841 4023 	str.w	r4, [r1, r3, lsl #2]
    1d32:	6b11      	ldr	r1, [r2, #48]	; 0x30
    1d34:	f7ff fa18 	bl	1168 <rt_free_box>
    1d38:	6829      	ldr	r1, [r5, #0]
    1d3a:	4841      	ldr	r0, [pc, #260]	; (1e40 <rt_tsk_delete+0x148>)
    1d3c:	630c      	str	r4, [r1, #48]	; 0x30
    1d3e:	f7ff fa13 	bl	1168 <rt_free_box>
    1d42:	602c      	str	r4, [r5, #0]
    1d44:	f7ff fef6 	bl	1b34 <rt_dispatch.part.0>
    1d48:	4620      	mov	r0, r4
    1d4a:	e8bd 8ff8 	ldmia.w	sp!, {r3, r4, r5, r6, r7, r8, r9, r10, r11, pc}
    1d4e:	6863      	ldr	r3, [r4, #4]
    1d50:	b1b3      	cbz	r3, 1d80 <rt_tsk_delete+0x88>
    1d52:	4620      	mov	r0, r4
    1d54:	f7fe ff10 	bl	b78 <rt_get_first>
    1d58:	4606      	mov	r6, r0
    1d5a:	2100      	movs	r1, #0
    1d5c:	f7ff f932 	bl	fc4 <rt_ret_val>
    1d60:	4630      	mov	r0, r6
    1d62:	f7fe ffaf 	bl	cc4 <rt_rmv_dly>
    1d66:	7077      	strb	r7, [r6, #1]
    1d68:	4631      	mov	r1, r6
    1d6a:	4640      	mov	r0, r8
    1d6c:	f7fe feec 	bl	b48 <rt_put_prio>
    1d70:	68e3      	ldr	r3, [r4, #12]
    1d72:	6a32      	ldr	r2, [r6, #32]
    1d74:	8067      	strh	r7, [r4, #2]
    1d76:	60a6      	str	r6, [r4, #8]
    1d78:	60e2      	str	r2, [r4, #12]
    1d7a:	6234      	str	r4, [r6, #32]
    1d7c:	461c      	mov	r4, r3
    1d7e:	e7d0      	b.n	1d22 <rt_tsk_delete+0x2a>
    1d80:	68e2      	ldr	r2, [r4, #12]
    1d82:	8063      	strh	r3, [r4, #2]
    1d84:	60a3      	str	r3, [r4, #8]
    1d86:	60e3      	str	r3, [r4, #12]
    1d88:	4614      	mov	r4, r2
    1d8a:	e7ca      	b.n	1d22 <rt_tsk_delete+0x2a>
    1d8c:	4b2d      	ldr	r3, [pc, #180]	; (1e44 <rt_tsk_delete+0x14c>)
    1d8e:	881b      	ldrh	r3, [r3, #0]
    1d90:	4298      	cmp	r0, r3
    1d92:	d84d      	bhi.n	1e30 <rt_tsk_delete+0x138>
    1d94:	4b28      	ldr	r3, [pc, #160]	; (1e38 <rt_tsk_delete+0x140>)
    1d96:	1e47      	subs	r7, r0, #1
    1d98:	f853 6027 	ldr.w	r6, [r3, r7, lsl #2]
    1d9c:	4699      	mov	r9, r3
    1d9e:	2e00      	cmp	r6, #0
    1da0:	d046      	beq.n	1e30 <rt_tsk_delete+0x138>
    1da2:	f04f 0a01 	mov.w	r10, #1
    1da6:	4630      	mov	r0, r6
    1da8:	f7fe ff5e 	bl	c68 <rt_rmv_list>
    1dac:	4630      	mov	r0, r6
    1dae:	f7fe ff89 	bl	cc4 <rt_rmv_dly>
    1db2:	f8df b094 	ldr.w	r11, [pc, #148]	; 1e48 <rt_tsk_delete+0x150>
    1db6:	6a34      	ldr	r4, [r6, #32]
    1db8:	b9b4      	cbnz	r4, 1de8 <rt_tsk_delete+0xf0>
    1dba:	6b31      	ldr	r1, [r6, #48]	; 0x30
    1dbc:	481f      	ldr	r0, [pc, #124]	; (1e3c <rt_tsk_delete+0x144>)
    1dbe:	f849 4027 	str.w	r4, [r9, r7, lsl #2]
    1dc2:	f7ff f9d1 	bl	1168 <rt_free_box>
    1dc6:	4631      	mov	r1, r6
    1dc8:	6334      	str	r4, [r6, #48]	; 0x30
    1dca:	481d      	ldr	r0, [pc, #116]	; (1e40 <rt_tsk_delete+0x148>)
    1dcc:	f7ff f9cc 	bl	1168 <rt_free_box>
    1dd0:	481d      	ldr	r0, [pc, #116]	; (1e48 <rt_tsk_delete+0x150>)
    1dd2:	6829      	ldr	r1, [r5, #0]
    1dd4:	6843      	ldr	r3, [r0, #4]
    1dd6:	789a      	ldrb	r2, [r3, #2]
    1dd8:	788b      	ldrb	r3, [r1, #2]
    1dda:	429a      	cmp	r2, r3
    1ddc:	d9b4      	bls.n	1d48 <rt_tsk_delete+0x50>
    1dde:	2301      	movs	r3, #1
    1de0:	704b      	strb	r3, [r1, #1]
    1de2:	f7fe feb1 	bl	b48 <rt_put_prio>
    1de6:	e7ad      	b.n	1d44 <rt_tsk_delete+0x4c>
    1de8:	6863      	ldr	r3, [r4, #4]
    1dea:	b1db      	cbz	r3, 1e24 <rt_tsk_delete+0x12c>
    1dec:	4620      	mov	r0, r4
    1dee:	f7fe fec3 	bl	b78 <rt_get_first>
    1df2:	4680      	mov	r8, r0
    1df4:	2100      	movs	r1, #0
    1df6:	f7ff f8e5 	bl	fc4 <rt_ret_val>
    1dfa:	4640      	mov	r0, r8
    1dfc:	f7fe ff62 	bl	cc4 <rt_rmv_dly>
    1e00:	f888 a001 	strb.w	r10, [r8, #1]
    1e04:	4641      	mov	r1, r8
    1e06:	4658      	mov	r0, r11
    1e08:	f7fe fe9e 	bl	b48 <rt_put_prio>
    1e0c:	68e3      	ldr	r3, [r4, #12]
    1e0e:	f8d8 2020 	ldr.w	r2, [r8, #32]
    1e12:	f8a4 a002 	strh.w	r10, [r4, #2]
    1e16:	f8c4 8008 	str.w	r8, [r4, #8]
    1e1a:	60e2      	str	r2, [r4, #12]
    1e1c:	f8c8 4020 	str.w	r4, [r8, #32]
    1e20:	461c      	mov	r4, r3
    1e22:	e7c9      	b.n	1db8 <rt_tsk_delete+0xc0>
    1e24:	68e2      	ldr	r2, [r4, #12]
    1e26:	8063      	strh	r3, [r4, #2]
    1e28:	60a3      	str	r3, [r4, #8]
    1e2a:	60e3      	str	r3, [r4, #12]
    1e2c:	4614      	mov	r4, r2
    1e2e:	e7c3      	b.n	1db8 <rt_tsk_delete+0xc0>
    1e30:	24ff      	movs	r4, #255	; 0xff
    1e32:	e789      	b.n	1d48 <rt_tsk_delete+0x50>
    1e34:	1000211c 	.word	0x1000211c
    1e38:	10001918 	.word	0x10001918
    1e3c:	10001708 	.word	0x10001708
    1e40:	10001d00 	.word	0x10001d00
    1e44:	0000834c 	.word	0x0000834c
    1e48:	100020d0 	.word	0x100020d0

00001e4c <rt_sys_init>:
    1e4c:	b538      	push	{r3, r4, r5, lr}
    1e4e:	4b2c      	ldr	r3, [pc, #176]	; (1f00 <rt_sys_init+0xb4>)
    1e50:	492c      	ldr	r1, [pc, #176]	; (1f04 <rt_sys_init+0xb8>)
    1e52:	881a      	ldrh	r2, [r3, #0]
    1e54:	2300      	movs	r3, #0
    1e56:	4618      	mov	r0, r3
    1e58:	4293      	cmp	r3, r2
    1e5a:	d34d      	bcc.n	1ef8 <rt_sys_init+0xac>
    1e5c:	4b2a      	ldr	r3, [pc, #168]	; (1f08 <rt_sys_init+0xbc>)
    1e5e:	2240      	movs	r2, #64	; 0x40
    1e60:	8819      	ldrh	r1, [r3, #0]
    1e62:	482a      	ldr	r0, [pc, #168]	; (1f0c <rt_sys_init+0xc0>)
    1e64:	f7ff f94e 	bl	1104 <_init_box>
    1e68:	4b29      	ldr	r3, [pc, #164]	; (1f10 <rt_sys_init+0xc4>)
    1e6a:	482a      	ldr	r0, [pc, #168]	; (1f14 <rt_sys_init+0xc8>)
    1e6c:	881a      	ldrh	r2, [r3, #0]
    1e6e:	4b2a      	ldr	r3, [pc, #168]	; (1f18 <rt_sys_init+0xcc>)
    1e70:	f042 4200 	orr.w	r2, r2, #2147483648	; 0x80000000
    1e74:	6819      	ldr	r1, [r3, #0]
    1e76:	f7ff f945 	bl	1104 <_init_box>
    1e7a:	4b28      	ldr	r3, [pc, #160]	; (1f1c <rt_sys_init+0xd0>)
    1e7c:	2208      	movs	r2, #8
    1e7e:	8819      	ldrh	r1, [r3, #0]
    1e80:	4b27      	ldr	r3, [pc, #156]	; (1f20 <rt_sys_init+0xd4>)
    1e82:	4c28      	ldr	r4, [pc, #160]	; (1f24 <rt_sys_init+0xd8>)
    1e84:	6818      	ldr	r0, [r3, #0]
    1e86:	f7ff f93d 	bl	1104 <_init_box>
    1e8a:	23ff      	movs	r3, #255	; 0xff
    1e8c:	2500      	movs	r5, #0
    1e8e:	70e3      	strb	r3, [r4, #3]
    1e90:	2301      	movs	r3, #1
    1e92:	4820      	ldr	r0, [pc, #128]	; (1f14 <rt_sys_init+0xc8>)
    1e94:	7063      	strb	r3, [r4, #1]
    1e96:	62a5      	str	r5, [r4, #40]	; 0x28
    1e98:	7025      	strb	r5, [r4, #0]
    1e9a:	70a5      	strb	r5, [r4, #2]
    1e9c:	f884 5024 	strb.w	r5, [r4, #36]	; 0x24
    1ea0:	6065      	str	r5, [r4, #4]
    1ea2:	60a5      	str	r5, [r4, #8]
    1ea4:	60e5      	str	r5, [r4, #12]
    1ea6:	6125      	str	r5, [r4, #16]
    1ea8:	6225      	str	r5, [r4, #32]
    1eaa:	82a5      	strh	r5, [r4, #20]
    1eac:	82e5      	strh	r5, [r4, #22]
    1eae:	8325      	strh	r5, [r4, #24]
    1eb0:	8365      	strh	r5, [r4, #26]
    1eb2:	f884 5025 	strb.w	r5, [r4, #37]	; 0x25
    1eb6:	f7ff f94a 	bl	114e <rt_alloc_box>
    1eba:	491b      	ldr	r1, [pc, #108]	; (1f28 <rt_sys_init+0xdc>)
    1ebc:	6320      	str	r0, [r4, #48]	; 0x30
    1ebe:	4620      	mov	r0, r4
    1ec0:	f7ff f836 	bl	f30 <rt_init_stack>
    1ec4:	2204      	movs	r2, #4
    1ec6:	4b19      	ldr	r3, [pc, #100]	; (1f2c <rt_sys_init+0xe0>)
    1ec8:	4620      	mov	r0, r4
    1eca:	701a      	strb	r2, [r3, #0]
    1ecc:	605d      	str	r5, [r3, #4]
    1ece:	4b18      	ldr	r3, [pc, #96]	; (1f30 <rt_sys_init+0xe4>)
    1ed0:	701a      	strb	r2, [r3, #0]
    1ed2:	60dd      	str	r5, [r3, #12]
    1ed4:	611d      	str	r5, [r3, #16]
    1ed6:	829d      	strh	r5, [r3, #20]
    1ed8:	4b16      	ldr	r3, [pc, #88]	; (1f34 <rt_sys_init+0xe8>)
    1eda:	601c      	str	r4, [r3, #0]
    1edc:	2302      	movs	r3, #2
    1ede:	7063      	strb	r3, [r4, #1]
    1ee0:	f7ff fe18 	bl	1b14 <rt_switch_req>
    1ee4:	4a14      	ldr	r2, [pc, #80]	; (1f38 <rt_sys_init+0xec>)
    1ee6:	4b15      	ldr	r3, [pc, #84]	; (1f3c <rt_sys_init+0xf0>)
    1ee8:	7812      	ldrb	r2, [r2, #0]
    1eea:	701d      	strb	r5, [r3, #0]
    1eec:	705d      	strb	r5, [r3, #1]
    1eee:	70da      	strb	r2, [r3, #3]
    1ef0:	e8bd 4038 	ldmia.w	sp!, {r3, r4, r5, lr}
    1ef4:	f7ff ba80 	b.w	13f8 <rt_init_robin>
    1ef8:	f841 0023 	str.w	r0, [r1, r3, lsl #2]
    1efc:	3301      	adds	r3, #1
    1efe:	e7ab      	b.n	1e58 <rt_sys_init+0xc>
    1f00:	0000834c 	.word	0x0000834c
    1f04:	10001918 	.word	0x10001918
    1f08:	00008318 	.word	0x00008318
    1f0c:	10001d00 	.word	0x10001d00
    1f10:	00008368 	.word	0x00008368
    1f14:	10001708 	.word	0x10001708
    1f18:	00008314 	.word	0x00008314
    1f1c:	0000831a 	.word	0x0000831a
    1f20:	10000434 	.word	0x10000434
    1f24:	10002124 	.word	0x10002124
    1f28:	00000aa9 	.word	0x00000aa9
    1f2c:	100020d0 	.word	0x100020d0
    1f30:	100020e8 	.word	0x100020e8
    1f34:	1000211c 	.word	0x1000211c
    1f38:	00008349 	.word	0x00008349
    1f3c:	10001954 	.word	0x10001954

00001f40 <rt_sys_start>:
    1f40:	b508      	push	{r3, lr}
    1f42:	4b1e      	ldr	r3, [pc, #120]	; (1fbc <rt_sys_start+0x7c>)
    1f44:	681a      	ldr	r2, [r3, #0]
    1f46:	f442 027f 	orr.w	r2, r2, #16711680	; 0xff0000
    1f4a:	601a      	str	r2, [r3, #0]
    1f4c:	681b      	ldr	r3, [r3, #0]
    1f4e:	021b      	lsls	r3, r3, #8
    1f50:	f003 437f 	and.w	r3, r3, #4278190080	; 0xff000000
    1f54:	43db      	mvns	r3, r3
    1f56:	fab3 f383 	clz	r3, r3
    1f5a:	4a19      	ldr	r2, [pc, #100]	; (1fc0 <rt_sys_start+0x80>)
    1f5c:	b2db      	uxtb	r3, r3
    1f5e:	6812      	ldr	r2, [r2, #0]
    1f60:	f1c3 0308 	rsb	r3, r3, #8
    1f64:	f3c2 2202 	ubfx	r2, r2, #8, #3
    1f68:	4293      	cmp	r3, r2
    1f6a:	bf98      	it	ls
    1f6c:	1c53      	addls	r3, r2, #1
    1f6e:	f06f 7280 	mvn.w	r2, #16777216	; 0x1000000
    1f72:	4814      	ldr	r0, [pc, #80]	; (1fc4 <rt_sys_start+0x84>)
    1f74:	fa02 f303 	lsl.w	r3, r2, r3
    1f78:	6801      	ldr	r1, [r0, #0]
    1f7a:	f003 437f 	and.w	r3, r3, #4278190080	; 0xff000000
    1f7e:	f021 427f 	bic.w	r2, r1, #4278190080	; 0xff000000
    1f82:	4313      	orrs	r3, r2
    1f84:	6003      	str	r3, [r0, #0]
    1f86:	f7ff f873 	bl	1070 <os_tick_init>
    1f8a:	4b0f      	ldr	r3, [pc, #60]	; (1fc8 <rt_sys_start+0x88>)
    1f8c:	2800      	cmp	r0, #0
    1f8e:	6018      	str	r0, [r3, #0]
    1f90:	db12      	blt.n	1fb8 <rt_sys_start+0x78>
    1f92:	22ff      	movs	r2, #255	; 0xff
    1f94:	2101      	movs	r1, #1
    1f96:	f100 4060 	add.w	r0, r0, #3758096384	; 0xe0000000
    1f9a:	f500 4064 	add.w	r0, r0, #58368	; 0xe400
    1f9e:	7002      	strb	r2, [r0, #0]
    1fa0:	681a      	ldr	r2, [r3, #0]
    1fa2:	0953      	lsrs	r3, r2, #5
    1fa4:	009b      	lsls	r3, r3, #2
    1fa6:	f103 4360 	add.w	r3, r3, #3758096384	; 0xe0000000
    1faa:	f002 021f 	and.w	r2, r2, #31
    1fae:	f503 4361 	add.w	r3, r3, #57600	; 0xe100
    1fb2:	fa01 f202 	lsl.w	r2, r1, r2
    1fb6:	601a      	str	r2, [r3, #0]
    1fb8:	bd08      	pop	{r3, pc}
    1fba:	bf00      	nop
    1fbc:	e000ed20 	.word	0xe000ed20
    1fc0:	e000ed0c 	.word	0xe000ed0c
    1fc4:	e000ed1c 	.word	0xe000ed1c
    1fc8:	10002100 	.word	0x10002100

00001fcc <rt_dly_wait>:
    1fcc:	2103      	movs	r1, #3
    1fce:	f7ff bddd 	b.w	1b8c <rt_block>
	...

00001fd4 <rt_sem_psh>:
    1fd4:	6842      	ldr	r2, [r0, #4]
    1fd6:	b510      	push	{r4, lr}
    1fd8:	b17a      	cbz	r2, 1ffa <rt_sem_psh+0x26>
    1fda:	f7fe fdcd 	bl	b78 <rt_get_first>
    1fde:	4604      	mov	r4, r0
    1fe0:	f7fe fe70 	bl	cc4 <rt_rmv_dly>
    1fe4:	2101      	movs	r1, #1
    1fe6:	4620      	mov	r0, r4
    1fe8:	7061      	strb	r1, [r4, #1]
    1fea:	f7fe ffeb 	bl	fc4 <rt_ret_val>
    1fee:	4621      	mov	r1, r4
    1ff0:	e8bd 4010 	ldmia.w	sp!, {r4, lr}
    1ff4:	4803      	ldr	r0, [pc, #12]	; (2004 <rt_sem_psh+0x30>)
    1ff6:	f7fe bda7 	b.w	b48 <rt_put_prio>
    1ffa:	8842      	ldrh	r2, [r0, #2]
    1ffc:	3201      	adds	r2, #1
    1ffe:	8042      	strh	r2, [r0, #2]
    2000:	bd10      	pop	{r4, pc}
    2002:	bf00      	nop
    2004:	100020d0 	.word	0x100020d0

00002008 <gpio_set>:
    2008:	b510      	push	{r4, lr}
    200a:	2100      	movs	r1, #0
    200c:	4604      	mov	r4, r0
    200e:	f000 f9c8 	bl	23a2 <pin_function>
    2012:	2001      	movs	r0, #1
    2014:	f004 041f 	and.w	r4, r4, #31
    2018:	40a0      	lsls	r0, r4
    201a:	bd10      	pop	{r4, pc}

0000201c <gpio_init>:
    201c:	b538      	push	{r3, r4, r5, lr}
    201e:	4605      	mov	r5, r0
    2020:	1c4b      	adds	r3, r1, #1
    2022:	460c      	mov	r4, r1
    2024:	6029      	str	r1, [r5, #0]
    2026:	d00f      	beq.n	2048 <gpio_init+0x2c>
    2028:	4608      	mov	r0, r1
    202a:	f7ff ffed 	bl	2008 <gpio_set>
    202e:	f024 041f 	bic.w	r4, r4, #31
    2032:	f104 0318 	add.w	r3, r4, #24
    2036:	60eb      	str	r3, [r5, #12]
    2038:	f104 031c 	add.w	r3, r4, #28
    203c:	612b      	str	r3, [r5, #16]
    203e:	f104 0314 	add.w	r3, r4, #20
    2042:	6068      	str	r0, [r5, #4]
    2044:	616b      	str	r3, [r5, #20]
    2046:	60ac      	str	r4, [r5, #8]
    2048:	bd38      	pop	{r3, r4, r5, pc}

0000204a <gpio_mode>:
    204a:	6800      	ldr	r0, [r0, #0]
    204c:	f000 b9c2 	b.w	23d4 <pin_mode>

00002050 <gpio_dir>:
    2050:	b111      	cbz	r1, 2058 <gpio_dir+0x8>
    2052:	2901      	cmp	r1, #1
    2054:	d007      	beq.n	2066 <gpio_dir+0x16>
    2056:	4770      	bx	lr
    2058:	6882      	ldr	r2, [r0, #8]
    205a:	6841      	ldr	r1, [r0, #4]
    205c:	6813      	ldr	r3, [r2, #0]
    205e:	ea23 0301 	bic.w	r3, r3, r1
    2062:	6013      	str	r3, [r2, #0]
    2064:	4770      	bx	lr
    2066:	6882      	ldr	r2, [r0, #8]
    2068:	6841      	ldr	r1, [r0, #4]
    206a:	6813      	ldr	r3, [r2, #0]
    206c:	430b      	orrs	r3, r1
    206e:	e7f8      	b.n	2062 <gpio_dir+0x12>

00002070 <hal_sleep>:
    2070:	b508      	push	{r3, lr}
    2072:	f7fe fc5d 	bl	930 <mbed_interface_disconnect>
    2076:	2200      	movs	r2, #0
    2078:	4b04      	ldr	r3, [pc, #16]	; (208c <hal_sleep+0x1c>)
    207a:	f8c3 20c0 	str.w	r2, [r3, #192]	; 0xc0
    207e:	4a04      	ldr	r2, [pc, #16]	; (2090 <hal_sleep+0x20>)
    2080:	6913      	ldr	r3, [r2, #16]
    2082:	f023 0304 	bic.w	r3, r3, #4
    2086:	6113      	str	r3, [r2, #16]
    2088:	bf30      	wfi
    208a:	bd08      	pop	{r3, pc}
    208c:	400fc000 	.word	0x400fc000
    2090:	e000ed00 	.word	0xe000ed00

00002094 <us_ticker_init>:
    2094:	b508      	push	{r3, lr}
    2096:	4b10      	ldr	r3, [pc, #64]	; (20d8 <us_ticker_init+0x44>)
    2098:	6818      	ldr	r0, [r3, #0]
    209a:	b9e0      	cbnz	r0, 20d6 <us_ticker_init+0x42>
    209c:	2101      	movs	r1, #1
    209e:	4a0f      	ldr	r2, [pc, #60]	; (20dc <us_ticker_init+0x48>)
    20a0:	6019      	str	r1, [r3, #0]
    20a2:	f8d2 30c4 	ldr.w	r3, [r2, #196]	; 0xc4
    20a6:	f443 0300 	orr.w	r3, r3, #8388608	; 0x800000
    20aa:	f8c2 30c4 	str.w	r3, [r2, #196]	; 0xc4
    20ae:	f5a2 22d0 	sub.w	r2, r2, #425984	; 0x68000
    20b2:	6710      	str	r0, [r2, #112]	; 0x70
    20b4:	2002      	movs	r0, #2
    20b6:	4b0a      	ldr	r3, [pc, #40]	; (20e0 <us_ticker_init+0x4c>)
    20b8:	681b      	ldr	r3, [r3, #0]
    20ba:	6050      	str	r0, [r2, #4]
    20bc:	4809      	ldr	r0, [pc, #36]	; (20e4 <us_ticker_init+0x50>)
    20be:	fbb3 f3f0 	udiv	r3, r3, r0
    20c2:	3b01      	subs	r3, #1
    20c4:	60d3      	str	r3, [r2, #12]
    20c6:	2004      	movs	r0, #4
    20c8:	6051      	str	r1, [r2, #4]
    20ca:	4907      	ldr	r1, [pc, #28]	; (20e8 <us_ticker_init+0x54>)
    20cc:	f000 fcd0 	bl	2a70 <__NVIC_SetVector>
    20d0:	2210      	movs	r2, #16
    20d2:	4b06      	ldr	r3, [pc, #24]	; (20ec <us_ticker_init+0x58>)
    20d4:	601a      	str	r2, [r3, #0]
    20d6:	bd08      	pop	{r3, pc}
    20d8:	100014a8 	.word	0x100014a8
    20dc:	400fc000 	.word	0x400fc000
    20e0:	100000e4 	.word	0x100000e4
    20e4:	003d0900 	.word	0x003d0900
    20e8:	00000845 	.word	0x00000845
    20ec:	e000e100 	.word	0xe000e100

000020f0 <us_ticker_read>:
    20f0:	b508      	push	{r3, lr}
    20f2:	4b04      	ldr	r3, [pc, #16]	; (2104 <us_ticker_read+0x14>)
    20f4:	681b      	ldr	r3, [r3, #0]
    20f6:	b90b      	cbnz	r3, 20fc <us_ticker_read+0xc>
    20f8:	f7ff ffcc 	bl	2094 <us_ticker_init>
    20fc:	4b02      	ldr	r3, [pc, #8]	; (2108 <us_ticker_read+0x18>)
    20fe:	6898      	ldr	r0, [r3, #8]
    2100:	bd08      	pop	{r3, pc}
    2102:	bf00      	nop
    2104:	100014a8 	.word	0x100014a8
    2108:	40094000 	.word	0x40094000

0000210c <us_ticker_set_interrupt>:
    210c:	4b03      	ldr	r3, [pc, #12]	; (211c <us_ticker_set_interrupt+0x10>)
    210e:	6198      	str	r0, [r3, #24]
    2110:	695a      	ldr	r2, [r3, #20]
    2112:	f042 0201 	orr.w	r2, r2, #1
    2116:	615a      	str	r2, [r3, #20]
    2118:	4770      	bx	lr
    211a:	bf00      	nop
    211c:	40094000 	.word	0x40094000

00002120 <us_ticker_disable_interrupt>:
    2120:	4a02      	ldr	r2, [pc, #8]	; (212c <us_ticker_disable_interrupt+0xc>)
    2122:	6953      	ldr	r3, [r2, #20]
    2124:	f023 0301 	bic.w	r3, r3, #1
    2128:	6153      	str	r3, [r2, #20]
    212a:	4770      	bx	lr
    212c:	40094000 	.word	0x40094000

00002130 <us_ticker_clear_interrupt>:
    2130:	2201      	movs	r2, #1
    2132:	4b01      	ldr	r3, [pc, #4]	; (2138 <us_ticker_clear_interrupt+0x8>)
    2134:	601a      	str	r2, [r3, #0]
    2136:	4770      	bx	lr
    2138:	40094000 	.word	0x40094000

0000213c <i2c_wait_SI>:
    213c:	6801      	ldr	r1, [r0, #0]
    213e:	4b05      	ldr	r3, [pc, #20]	; (2154 <i2c_wait_SI+0x18>)
    2140:	680a      	ldr	r2, [r1, #0]
    2142:	0712      	lsls	r2, r2, #28
    2144:	d501      	bpl.n	214a <i2c_wait_SI+0xe>
    2146:	2000      	movs	r0, #0
    2148:	4770      	bx	lr
    214a:	3b01      	subs	r3, #1
    214c:	d1f8      	bne.n	2140 <i2c_wait_SI+0x4>
    214e:	f04f 30ff 	mov.w	r0, #4294967295	; 0xffffffff
    2152:	4770      	bx	lr
    2154:	000186a1 	.word	0x000186a1

00002158 <i2c_start>:
    2158:	2134      	movs	r1, #52	; 0x34
    215a:	6803      	ldr	r3, [r0, #0]
    215c:	b510      	push	{r4, lr}
    215e:	681a      	ldr	r2, [r3, #0]
    2160:	6199      	str	r1, [r3, #24]
    2162:	0712      	lsls	r2, r2, #28
    2164:	bf48      	it	mi
    2166:	2208      	movmi	r2, #8
    2168:	f04f 0124 	mov.w	r1, #36	; 0x24
    216c:	4604      	mov	r4, r0
    216e:	6019      	str	r1, [r3, #0]
    2170:	bf48      	it	mi
    2172:	619a      	strmi	r2, [r3, #24]
    2174:	f7ff ffe2 	bl	213c <i2c_wait_SI>
    2178:	2220      	movs	r2, #32
    217a:	6823      	ldr	r3, [r4, #0]
    217c:	6858      	ldr	r0, [r3, #4]
    217e:	619a      	str	r2, [r3, #24]
    2180:	bd10      	pop	{r4, pc}
	...

00002184 <i2c_stop>:
    2184:	2210      	movs	r2, #16
    2186:	6803      	ldr	r3, [r0, #0]
    2188:	601a      	str	r2, [r3, #0]
    218a:	2208      	movs	r2, #8
    218c:	619a      	str	r2, [r3, #24]
    218e:	4a05      	ldr	r2, [pc, #20]	; (21a4 <i2c_stop+0x20>)
    2190:	6818      	ldr	r0, [r3, #0]
    2192:	f010 0010 	ands.w	r0, r0, #16
    2196:	d100      	bne.n	219a <i2c_stop+0x16>
    2198:	4770      	bx	lr
    219a:	3a01      	subs	r2, #1
    219c:	d1f8      	bne.n	2190 <i2c_stop+0xc>
    219e:	2001      	movs	r0, #1
    21a0:	4770      	bx	lr
    21a2:	bf00      	nop
    21a4:	000186a1 	.word	0x000186a1

000021a8 <i2c_frequency>:
    21a8:	4b04      	ldr	r3, [pc, #16]	; (21bc <i2c_frequency+0x14>)
    21aa:	0049      	lsls	r1, r1, #1
    21ac:	681b      	ldr	r3, [r3, #0]
    21ae:	089b      	lsrs	r3, r3, #2
    21b0:	fbb3 f1f1 	udiv	r1, r3, r1
    21b4:	6803      	ldr	r3, [r0, #0]
    21b6:	6159      	str	r1, [r3, #20]
    21b8:	6119      	str	r1, [r3, #16]
    21ba:	4770      	bx	lr
    21bc:	100000e4 	.word	0x100000e4

000021c0 <i2c_init>:
    21c0:	b5f8      	push	{r3, r4, r5, r6, r7, lr}
    21c2:	460e      	mov	r6, r1
    21c4:	4604      	mov	r4, r0
    21c6:	4920      	ldr	r1, [pc, #128]	; (2248 <i2c_init+0x88>)
    21c8:	4630      	mov	r0, r6
    21ca:	4615      	mov	r5, r2
    21cc:	f7fe fb9e 	bl	90c <pinmap_peripheral>
    21d0:	491e      	ldr	r1, [pc, #120]	; (224c <i2c_init+0x8c>)
    21d2:	4607      	mov	r7, r0
    21d4:	4628      	mov	r0, r5
    21d6:	f7fe fb99 	bl	90c <pinmap_peripheral>
    21da:	4601      	mov	r1, r0
    21dc:	4638      	mov	r0, r7
    21de:	f7fe fb77 	bl	8d0 <pinmap_merge>
    21e2:	4b1b      	ldr	r3, [pc, #108]	; (2250 <i2c_init+0x90>)
    21e4:	6020      	str	r0, [r4, #0]
    21e6:	4298      	cmp	r0, r3
    21e8:	d021      	beq.n	222e <i2c_init+0x6e>
    21ea:	f503 2388 	add.w	r3, r3, #278528	; 0x44000
    21ee:	4298      	cmp	r0, r3
    21f0:	d023      	beq.n	223a <i2c_init+0x7a>
    21f2:	f5a3 2304 	sub.w	r3, r3, #540672	; 0x84000
    21f6:	4298      	cmp	r0, r3
    21f8:	d106      	bne.n	2208 <i2c_init+0x48>
    21fa:	4a16      	ldr	r2, [pc, #88]	; (2254 <i2c_init+0x94>)
    21fc:	f8d2 30c4 	ldr.w	r3, [r2, #196]	; 0xc4
    2200:	f043 0380 	orr.w	r3, r3, #128	; 0x80
    2204:	f8c2 30c4 	str.w	r3, [r2, #196]	; 0xc4
    2208:	4620      	mov	r0, r4
    220a:	4913      	ldr	r1, [pc, #76]	; (2258 <i2c_init+0x98>)
    220c:	f7ff ffcc 	bl	21a8 <i2c_frequency>
    2210:	223c      	movs	r2, #60	; 0x3c
    2212:	6823      	ldr	r3, [r4, #0]
    2214:	4630      	mov	r0, r6
    2216:	619a      	str	r2, [r3, #24]
    2218:	2240      	movs	r2, #64	; 0x40
    221a:	490b      	ldr	r1, [pc, #44]	; (2248 <i2c_init+0x88>)
    221c:	601a      	str	r2, [r3, #0]
    221e:	f7fe fb3b 	bl	898 <pinmap_pinout>
    2222:	4628      	mov	r0, r5
    2224:	e8bd 40f8 	ldmia.w	sp!, {r3, r4, r5, r6, r7, lr}
    2228:	4908      	ldr	r1, [pc, #32]	; (224c <i2c_init+0x8c>)
    222a:	f7fe bb35 	b.w	898 <pinmap_pinout>
    222e:	4a09      	ldr	r2, [pc, #36]	; (2254 <i2c_init+0x94>)
    2230:	f8d2 30c4 	ldr.w	r3, [r2, #196]	; 0xc4
    2234:	f443 2300 	orr.w	r3, r3, #524288	; 0x80000
    2238:	e7e4      	b.n	2204 <i2c_init+0x44>
    223a:	4a06      	ldr	r2, [pc, #24]	; (2254 <i2c_init+0x94>)
    223c:	f8d2 30c4 	ldr.w	r3, [r2, #196]	; 0xc4
    2240:	f043 6380 	orr.w	r3, r3, #67108864	; 0x4000000
    2244:	e7de      	b.n	2204 <i2c_init+0x44>
    2246:	bf00      	nop
    2248:	000083c4 	.word	0x000083c4
    224c:	00008388 	.word	0x00008388
    2250:	4005c000 	.word	0x4005c000
    2254:	400fc000 	.word	0x400fc000
    2258:	000186a0 	.word	0x000186a0

0000225c <i2c_read>:
    225c:	e92d 4ef0 	stmdb	sp!, {r4, r5, r6, r7, r9, r10, r11, lr}
    2260:	4604      	mov	r4, r0
    2262:	460e      	mov	r6, r1
    2264:	4691      	mov	r9, r2
    2266:	461d      	mov	r5, r3
    2268:	f7ff ff76 	bl	2158 <i2c_start>
    226c:	2810      	cmp	r0, #16
    226e:	d009      	beq.n	2284 <i2c_read+0x28>
    2270:	2808      	cmp	r0, #8
    2272:	d007      	beq.n	2284 <i2c_read+0x28>
    2274:	4620      	mov	r0, r4
    2276:	f7ff ff85 	bl	2184 <i2c_stop>
    227a:	f06f 0501 	mvn.w	r5, #1
    227e:	4628      	mov	r0, r5
    2280:	e8bd 8ef0 	ldmia.w	sp!, {r4, r5, r6, r7, r9, r10, r11, pc}
    2284:	2708      	movs	r7, #8
    2286:	6823      	ldr	r3, [r4, #0]
    2288:	f046 0601 	orr.w	r6, r6, #1
    228c:	609e      	str	r6, [r3, #8]
    228e:	4620      	mov	r0, r4
    2290:	619f      	str	r7, [r3, #24]
    2292:	f7ff ff53 	bl	213c <i2c_wait_SI>
    2296:	6823      	ldr	r3, [r4, #0]
    2298:	685b      	ldr	r3, [r3, #4]
    229a:	2b40      	cmp	r3, #64	; 0x40
    229c:	d117      	bne.n	22ce <i2c_read+0x72>
    229e:	2600      	movs	r6, #0
    22a0:	f04f 0b04 	mov.w	r11, #4
    22a4:	f105 3aff 	add.w	r10, r5, #4294967295	; 0xffffffff
    22a8:	4556      	cmp	r6, r10
    22aa:	6823      	ldr	r3, [r4, #0]
    22ac:	db15      	blt.n	22da <i2c_read+0x7e>
    22ae:	f8c3 b018 	str.w	r11, [r3, #24]
    22b2:	4620      	mov	r0, r4
    22b4:	619f      	str	r7, [r3, #24]
    22b6:	f7ff ff41 	bl	213c <i2c_wait_SI>
    22ba:	6823      	ldr	r3, [r4, #0]
    22bc:	689a      	ldr	r2, [r3, #8]
    22be:	685b      	ldr	r3, [r3, #4]
    22c0:	2b58      	cmp	r3, #88	; 0x58
    22c2:	d01e      	beq.n	2302 <i2c_read+0xa6>
    22c4:	4620      	mov	r0, r4
    22c6:	f7ff ff5d 	bl	2184 <i2c_stop>
    22ca:	4655      	mov	r5, r10
    22cc:	e7d7      	b.n	227e <i2c_read+0x22>
    22ce:	4620      	mov	r0, r4
    22d0:	f7ff ff58 	bl	2184 <i2c_stop>
    22d4:	f04f 35ff 	mov.w	r5, #4294967295	; 0xffffffff
    22d8:	e7d1      	b.n	227e <i2c_read+0x22>
    22da:	f8c3 b000 	str.w	r11, [r3]
    22de:	4620      	mov	r0, r4
    22e0:	619f      	str	r7, [r3, #24]
    22e2:	f7ff ff2b 	bl	213c <i2c_wait_SI>
    22e6:	6823      	ldr	r3, [r4, #0]
    22e8:	689a      	ldr	r2, [r3, #8]
    22ea:	685b      	ldr	r3, [r3, #4]
    22ec:	2b50      	cmp	r3, #80	; 0x50
    22ee:	d004      	beq.n	22fa <i2c_read+0x9e>
    22f0:	4620      	mov	r0, r4
    22f2:	f7ff ff47 	bl	2184 <i2c_stop>
    22f6:	4635      	mov	r5, r6
    22f8:	e7c1      	b.n	227e <i2c_read+0x22>
    22fa:	f809 2006 	strb.w	r2, [r9, r6]
    22fe:	3601      	adds	r6, #1
    2300:	e7d2      	b.n	22a8 <i2c_read+0x4c>
    2302:	9b08      	ldr	r3, [sp, #32]
    2304:	f809 2006 	strb.w	r2, [r9, r6]
    2308:	2b00      	cmp	r3, #0
    230a:	d0b8      	beq.n	227e <i2c_read+0x22>
    230c:	4620      	mov	r0, r4
    230e:	f7ff ff39 	bl	2184 <i2c_stop>
    2312:	e7b4      	b.n	227e <i2c_read+0x22>

00002314 <i2c_write>:
    2314:	e92d 43f8 	stmdb	sp!, {r3, r4, r5, r6, r7, r8, r9, lr}
    2318:	9f08      	ldr	r7, [sp, #32]
    231a:	4604      	mov	r4, r0
    231c:	460e      	mov	r6, r1
    231e:	4691      	mov	r9, r2
    2320:	461d      	mov	r5, r3
    2322:	f7ff ff19 	bl	2158 <i2c_start>
    2326:	2810      	cmp	r0, #16
    2328:	d009      	beq.n	233e <i2c_write+0x2a>
    232a:	2808      	cmp	r0, #8
    232c:	d007      	beq.n	233e <i2c_write+0x2a>
    232e:	4620      	mov	r0, r4
    2330:	f7ff ff28 	bl	2184 <i2c_stop>
    2334:	f06f 0501 	mvn.w	r5, #1
    2338:	4628      	mov	r0, r5
    233a:	e8bd 83f8 	ldmia.w	sp!, {r3, r4, r5, r6, r7, r8, r9, pc}
    233e:	f04f 0808 	mov.w	r8, #8
    2342:	6823      	ldr	r3, [r4, #0]
    2344:	f006 06fe 	and.w	r6, r6, #254	; 0xfe
    2348:	609e      	str	r6, [r3, #8]
    234a:	4620      	mov	r0, r4
    234c:	f8c3 8018 	str.w	r8, [r3, #24]
    2350:	f7ff fef4 	bl	213c <i2c_wait_SI>
    2354:	6823      	ldr	r3, [r4, #0]
    2356:	685b      	ldr	r3, [r3, #4]
    2358:	2b18      	cmp	r3, #24
    235a:	d108      	bne.n	236e <i2c_write+0x5a>
    235c:	2600      	movs	r6, #0
    235e:	42ae      	cmp	r6, r5
    2360:	db0b      	blt.n	237a <i2c_write+0x66>
    2362:	2f00      	cmp	r7, #0
    2364:	d0e8      	beq.n	2338 <i2c_write+0x24>
    2366:	4620      	mov	r0, r4
    2368:	f7ff ff0c 	bl	2184 <i2c_stop>
    236c:	e7e4      	b.n	2338 <i2c_write+0x24>
    236e:	4620      	mov	r0, r4
    2370:	f7ff ff08 	bl	2184 <i2c_stop>
    2374:	f04f 35ff 	mov.w	r5, #4294967295	; 0xffffffff
    2378:	e7de      	b.n	2338 <i2c_write+0x24>
    237a:	6823      	ldr	r3, [r4, #0]
    237c:	f819 2006 	ldrb.w	r2, [r9, r6]
    2380:	4620      	mov	r0, r4
    2382:	609a      	str	r2, [r3, #8]
    2384:	f8c3 8018 	str.w	r8, [r3, #24]
    2388:	f7ff fed8 	bl	213c <i2c_wait_SI>
    238c:	6823      	ldr	r3, [r4, #0]
    238e:	685b      	ldr	r3, [r3, #4]
    2390:	2b28      	cmp	r3, #40	; 0x28
    2392:	d004      	beq.n	239e <i2c_write+0x8a>
    2394:	4620      	mov	r0, r4
    2396:	f7ff fef5 	bl	2184 <i2c_stop>
    239a:	4635      	mov	r5, r6
    239c:	e7cc      	b.n	2338 <i2c_write+0x24>
    239e:	3601      	adds	r6, #1
    23a0:	e7dd      	b.n	235e <i2c_write+0x4a>

000023a2 <pin_function>:
    23a2:	b510      	push	{r4, lr}
    23a4:	2403      	movs	r4, #3
    23a6:	f100 4060 	add.w	r0, r0, #3758096384	; 0xe0000000
    23aa:	f5a0 201c 	sub.w	r0, r0, #638976	; 0x9c000
    23ae:	0043      	lsls	r3, r0, #1
    23b0:	0900      	lsrs	r0, r0, #4
    23b2:	0080      	lsls	r0, r0, #2
    23b4:	f100 4080 	add.w	r0, r0, #1073741824	; 0x40000000
    23b8:	f500 3030 	add.w	r0, r0, #180224	; 0x2c000
    23bc:	6802      	ldr	r2, [r0, #0]
    23be:	f003 031e 	and.w	r3, r3, #30
    23c2:	409c      	lsls	r4, r3
    23c4:	ea22 0204 	bic.w	r2, r2, r4
    23c8:	6002      	str	r2, [r0, #0]
    23ca:	6802      	ldr	r2, [r0, #0]
    23cc:	4099      	lsls	r1, r3
    23ce:	4311      	orrs	r1, r2
    23d0:	6001      	str	r1, [r0, #0]
    23d2:	bd10      	pop	{r4, pc}

000023d4 <pin_mode>:
    23d4:	f100 4060 	add.w	r0, r0, #3758096384	; 0xe0000000
    23d8:	f5a0 201c 	sub.w	r0, r0, #638976	; 0x9c000
    23dc:	0943      	lsrs	r3, r0, #5
    23de:	009b      	lsls	r3, r3, #2
    23e0:	f103 4380 	add.w	r3, r3, #1073741824	; 0x40000000
    23e4:	f503 3330 	add.w	r3, r3, #180224	; 0x2c000
    23e8:	b530      	push	{r4, r5, lr}
    23ea:	f000 021f 	and.w	r2, r0, #31
    23ee:	6e9c      	ldr	r4, [r3, #104]	; 0x68
    23f0:	f3c1 0580 	ubfx	r5, r1, #2, #1
    23f4:	fa05 f202 	lsl.w	r2, r5, r2
    23f8:	ea24 0402 	bic.w	r4, r4, r2
    23fc:	669c      	str	r4, [r3, #104]	; 0x68
    23fe:	6e9c      	ldr	r4, [r3, #104]	; 0x68
    2400:	4322      	orrs	r2, r4
    2402:	669a      	str	r2, [r3, #104]	; 0x68
    2404:	b995      	cbnz	r5, 242c <pin_mode+0x58>
    2406:	2403      	movs	r4, #3
    2408:	0043      	lsls	r3, r0, #1
    240a:	0900      	lsrs	r0, r0, #4
    240c:	0080      	lsls	r0, r0, #2
    240e:	f100 4080 	add.w	r0, r0, #1073741824	; 0x40000000
    2412:	f500 3030 	add.w	r0, r0, #180224	; 0x2c000
    2416:	6c02      	ldr	r2, [r0, #64]	; 0x40
    2418:	f003 031e 	and.w	r3, r3, #30
    241c:	409c      	lsls	r4, r3
    241e:	ea22 0204 	bic.w	r2, r2, r4
    2422:	6402      	str	r2, [r0, #64]	; 0x40
    2424:	6c02      	ldr	r2, [r0, #64]	; 0x40
    2426:	4099      	lsls	r1, r3
    2428:	4311      	orrs	r1, r2
    242a:	6401      	str	r1, [r0, #64]	; 0x40
    242c:	bd30      	pop	{r4, r5, pc}
	...

00002430 <uart_irq>:
    2430:	2801      	cmp	r0, #1
    2432:	b410      	push	{r4}
    2434:	d008      	beq.n	2448 <uart_irq+0x18>
    2436:	2802      	cmp	r0, #2
    2438:	d008      	beq.n	244c <uart_irq+0x1c>
    243a:	bc10      	pop	{r4}
    243c:	4770      	bx	lr
    243e:	6850      	ldr	r0, [r2, #4]
    2440:	f020 0001 	bic.w	r0, r0, #1
    2444:	6050      	str	r0, [r2, #4]
    2446:	e010      	b.n	246a <uart_irq+0x3a>
    2448:	4603      	mov	r3, r0
    244a:	e00e      	b.n	246a <uart_irq+0x3a>
    244c:	2338      	movs	r3, #56	; 0x38
    244e:	480f      	ldr	r0, [pc, #60]	; (248c <uart_irq+0x5c>)
    2450:	fb03 0301 	mla	r3, r3, r1, r0
    2454:	6858      	ldr	r0, [r3, #4]
    2456:	3001      	adds	r0, #1
    2458:	d006      	beq.n	2468 <uart_irq+0x38>
    245a:	6918      	ldr	r0, [r3, #16]
    245c:	689c      	ldr	r4, [r3, #8]
    245e:	6004      	str	r4, [r0, #0]
    2460:	f893 3036 	ldrb.w	r3, [r3, #54]	; 0x36
    2464:	2b00      	cmp	r3, #0
    2466:	d0ea      	beq.n	243e <uart_irq+0xe>
    2468:	2300      	movs	r3, #0
    246a:	2238      	movs	r2, #56	; 0x38
    246c:	4351      	muls	r1, r2
    246e:	4807      	ldr	r0, [pc, #28]	; (248c <uart_irq+0x5c>)
    2470:	1842      	adds	r2, r0, r1
    2472:	5840      	ldr	r0, [r0, r1]
    2474:	2800      	cmp	r0, #0
    2476:	d0e0      	beq.n	243a <uart_irq+0xa>
    2478:	b91b      	cbnz	r3, 2482 <uart_irq+0x52>
    247a:	f892 2036 	ldrb.w	r2, [r2, #54]	; 0x36
    247e:	2a00      	cmp	r2, #0
    2480:	d0db      	beq.n	243a <uart_irq+0xa>
    2482:	4a03      	ldr	r2, [pc, #12]	; (2490 <uart_irq+0x60>)
    2484:	4619      	mov	r1, r3
    2486:	6812      	ldr	r2, [r2, #0]
    2488:	bc10      	pop	{r4}
    248a:	4710      	bx	r2
    248c:	100014b4 	.word	0x100014b4
    2490:	100014ac 	.word	0x100014ac

00002494 <uart0_irq>:
    2494:	4a03      	ldr	r2, [pc, #12]	; (24a4 <uart0_irq+0x10>)
    2496:	2100      	movs	r1, #0
    2498:	6890      	ldr	r0, [r2, #8]
    249a:	f3c0 0042 	ubfx	r0, r0, #1, #3
    249e:	f7ff bfc7 	b.w	2430 <uart_irq>
    24a2:	bf00      	nop
    24a4:	4000c000 	.word	0x4000c000

000024a8 <uart1_irq>:
    24a8:	4a03      	ldr	r2, [pc, #12]	; (24b8 <uart1_irq+0x10>)
    24aa:	2101      	movs	r1, #1
    24ac:	6890      	ldr	r0, [r2, #8]
    24ae:	f3c0 0042 	ubfx	r0, r0, #1, #3
    24b2:	f7ff bfbd 	b.w	2430 <uart_irq>
    24b6:	bf00      	nop
    24b8:	40010000 	.word	0x40010000

000024bc <uart2_irq>:
    24bc:	4a03      	ldr	r2, [pc, #12]	; (24cc <uart2_irq+0x10>)
    24be:	2102      	movs	r1, #2
    24c0:	6890      	ldr	r0, [r2, #8]
    24c2:	f3c0 0042 	ubfx	r0, r0, #1, #3
    24c6:	f7ff bfb3 	b.w	2430 <uart_irq>
    24ca:	bf00      	nop
    24cc:	40098000 	.word	0x40098000

000024d0 <uart3_irq>:
    24d0:	4a03      	ldr	r2, [pc, #12]	; (24e0 <uart3_irq+0x10>)
    24d2:	2103      	movs	r1, #3
    24d4:	6890      	ldr	r0, [r2, #8]
    24d6:	f3c0 0042 	ubfx	r0, r0, #1, #3
    24da:	f7ff bfa9 	b.w	2430 <uart_irq>
    24de:	bf00      	nop
    24e0:	4009c000 	.word	0x4009c000

000024e4 <serial_irq_set_internal>:
    24e4:	b570      	push	{r4, r5, r6, lr}
    24e6:	460b      	mov	r3, r1
    24e8:	6806      	ldr	r6, [r0, #0]
    24ea:	4929      	ldr	r1, [pc, #164]	; (2590 <serial_irq_set_internal+0xac>)
    24ec:	428e      	cmp	r6, r1
    24ee:	d022      	beq.n	2536 <serial_irq_set_internal+0x52>
    24f0:	dc06      	bgt.n	2500 <serial_irq_set_internal+0x1c>
    24f2:	f5a1 4180 	sub.w	r1, r1, #16384	; 0x4000
    24f6:	428e      	cmp	r6, r1
    24f8:	d00c      	beq.n	2514 <serial_irq_set_internal+0x30>
    24fa:	2100      	movs	r1, #0
    24fc:	460c      	mov	r4, r1
    24fe:	e00b      	b.n	2518 <serial_irq_set_internal+0x34>
    2500:	4924      	ldr	r1, [pc, #144]	; (2594 <serial_irq_set_internal+0xb0>)
    2502:	428e      	cmp	r6, r1
    2504:	d01a      	beq.n	253c <serial_irq_set_internal+0x58>
    2506:	f501 4180 	add.w	r1, r1, #16384	; 0x4000
    250a:	428e      	cmp	r6, r1
    250c:	d1f5      	bne.n	24fa <serial_irq_set_internal+0x16>
    250e:	4922      	ldr	r1, [pc, #136]	; (2598 <serial_irq_set_internal+0xb4>)
    2510:	2408      	movs	r4, #8
    2512:	e001      	b.n	2518 <serial_irq_set_internal+0x34>
    2514:	2405      	movs	r4, #5
    2516:	4921      	ldr	r1, [pc, #132]	; (259c <serial_irq_set_internal+0xb8>)
    2518:	b19a      	cbz	r2, 2542 <serial_irq_set_internal+0x5e>
    251a:	2501      	movs	r5, #1
    251c:	6872      	ldr	r2, [r6, #4]
    251e:	fa05 f303 	lsl.w	r3, r5, r3
    2522:	4313      	orrs	r3, r2
    2524:	6073      	str	r3, [r6, #4]
    2526:	4620      	mov	r0, r4
    2528:	f000 faa2 	bl	2a70 <__NVIC_SetVector>
    252c:	4b1c      	ldr	r3, [pc, #112]	; (25a0 <serial_irq_set_internal+0xbc>)
    252e:	fa05 f404 	lsl.w	r4, r5, r4
    2532:	601c      	str	r4, [r3, #0]
    2534:	bd70      	pop	{r4, r5, r6, pc}
    2536:	491b      	ldr	r1, [pc, #108]	; (25a4 <serial_irq_set_internal+0xc0>)
    2538:	2406      	movs	r4, #6
    253a:	e7ed      	b.n	2518 <serial_irq_set_internal+0x34>
    253c:	491a      	ldr	r1, [pc, #104]	; (25a8 <serial_irq_set_internal+0xc4>)
    253e:	2407      	movs	r4, #7
    2540:	e7ea      	b.n	2518 <serial_irq_set_internal+0x34>
    2542:	2b01      	cmp	r3, #1
    2544:	d00a      	beq.n	255c <serial_irq_set_internal+0x78>
    2546:	6842      	ldr	r2, [r0, #4]
    2548:	2038      	movs	r0, #56	; 0x38
    254a:	4918      	ldr	r1, [pc, #96]	; (25ac <serial_irq_set_internal+0xc8>)
    254c:	fb00 1202 	mla	r2, r0, r2, r1
    2550:	f892 1036 	ldrb.w	r1, [r2, #54]	; 0x36
    2554:	f892 2035 	ldrb.w	r2, [r2, #53]	; 0x35
    2558:	42d1      	cmn	r1, r2
    255a:	d117      	bne.n	258c <serial_irq_set_internal+0xa8>
    255c:	2201      	movs	r2, #1
    255e:	fa02 f003 	lsl.w	r0, r2, r3
    2562:	fab3 f383 	clz	r3, r3
    2566:	6871      	ldr	r1, [r6, #4]
    2568:	095b      	lsrs	r3, r3, #5
    256a:	ea21 0100 	bic.w	r1, r1, r0
    256e:	6071      	str	r1, [r6, #4]
    2570:	6871      	ldr	r1, [r6, #4]
    2572:	fa02 f303 	lsl.w	r3, r2, r3
    2576:	420b      	tst	r3, r1
    2578:	d108      	bne.n	258c <serial_irq_set_internal+0xa8>
    257a:	4b09      	ldr	r3, [pc, #36]	; (25a0 <serial_irq_set_internal+0xbc>)
    257c:	fa02 f404 	lsl.w	r4, r2, r4
    2580:	f8c3 4080 	str.w	r4, [r3, #128]	; 0x80
    2584:	f3bf 8f4f 	dsb	sy
    2588:	f3bf 8f6f 	isb	sy
    258c:	bd70      	pop	{r4, r5, r6, pc}
    258e:	bf00      	nop
    2590:	40010000 	.word	0x40010000
    2594:	40098000 	.word	0x40098000
    2598:	000024d1 	.word	0x000024d1
    259c:	00002495 	.word	0x00002495
    25a0:	e000e100 	.word	0xe000e100
    25a4:	000024a9 	.word	0x000024a9
    25a8:	000024bd 	.word	0x000024bd
    25ac:	100014b4 	.word	0x100014b4

000025b0 <serial_baud>:
    25b0:	e92d 4ff0 	stmdb	sp!, {r4, r5, r6, r7, r8, r9, r10, r11, lr}
    25b4:	4b64      	ldr	r3, [pc, #400]	; (2748 <serial_baud+0x198>)
    25b6:	6804      	ldr	r4, [r0, #0]
    25b8:	b087      	sub	sp, #28
    25ba:	429c      	cmp	r4, r3
    25bc:	f000 808d 	beq.w	26da <serial_baud+0x12a>
    25c0:	dc6a      	bgt.n	2698 <serial_baud+0xe8>
    25c2:	f5a3 4380 	sub.w	r3, r3, #16384	; 0x4000
    25c6:	429c      	cmp	r4, r3
    25c8:	d079      	beq.n	26be <serial_baud+0x10e>
    25ca:	4b60      	ldr	r3, [pc, #384]	; (274c <serial_baud+0x19c>)
    25cc:	0108      	lsls	r0, r1, #4
    25ce:	f8d3 c000 	ldr.w	r12, [r3]
    25d2:	fbbc f2f0 	udiv	r2, r12, r0
    25d6:	b293      	uxth	r3, r2
    25d8:	fb00 c212 	mls	r2, r0, r2, r12
    25dc:	2a00      	cmp	r2, #0
    25de:	f000 80aa 	beq.w	2736 <serial_baud+0x186>
    25e2:	2501      	movs	r5, #1
    25e4:	46e6      	mov	lr, r12
    25e6:	4699      	mov	r9, r3
    25e8:	46ab      	mov	r11, r5
    25ea:	f04f 0a00 	mov.w	r10, #0
    25ee:	9101      	str	r1, [sp, #4]
    25f0:	9103      	str	r1, [sp, #12]
    25f2:	2600      	movs	r6, #0
    25f4:	ea4f 034e 	mov.w	r3, lr, lsl #1
    25f8:	9304      	str	r3, [sp, #16]
    25fa:	f8dd 8004 	ldr.w	r8, [sp, #4]
    25fe:	ea4f 038e 	mov.w	r3, lr, lsl #2
    2602:	b2ef      	uxtb	r7, r5
    2604:	9305      	str	r3, [sp, #20]
    2606:	b2f3      	uxtb	r3, r6
    2608:	9300      	str	r3, [sp, #0]
    260a:	9b04      	ldr	r3, [sp, #16]
    260c:	2b00      	cmp	r3, #0
    260e:	bfab      	itete	ge
    2610:	9b05      	ldrge	r3, [sp, #20]
    2612:	fbb3 f3f8 	udivlt	r3, r3, r8
    2616:	fbb3 f3f8 	udivge	r3, r3, r8
    261a:	091b      	lsrlt	r3, r3, #4
    261c:	bfa8      	it	ge
    261e:	095b      	lsrge	r3, r3, #5
    2620:	3301      	adds	r3, #1
    2622:	f3c3 034f 	ubfx	r3, r3, #1, #16
    2626:	2b00      	cmp	r3, #0
    2628:	f000 8088 	beq.w	273c <serial_baud+0x18c>
    262c:	b116      	cbz	r6, 2634 <serial_baud+0x84>
    262e:	2b01      	cmp	r3, #1
    2630:	bf08      	it	eq
    2632:	2302      	moveq	r3, #2
    2634:	19a8      	adds	r0, r5, r6
    2636:	4358      	muls	r0, r3
    2638:	00c0      	lsls	r0, r0, #3
    263a:	fbbe f0f0 	udiv	r0, lr, r0
    263e:	3001      	adds	r0, #1
    2640:	ebc1 0050 	rsb	r0, r1, r0, lsr #1
    2644:	2800      	cmp	r0, #0
    2646:	bfb8      	it	lt
    2648:	4240      	neglt	r0, r0
    264a:	9002      	str	r0, [sp, #8]
    264c:	9a02      	ldr	r2, [sp, #8]
    264e:	9803      	ldr	r0, [sp, #12]
    2650:	4282      	cmp	r2, r0
    2652:	da62      	bge.n	271a <serial_baud+0x16a>
    2654:	4291      	cmp	r1, r2
    2656:	d15a      	bne.n	270e <serial_baud+0x15e>
    2658:	2d0f      	cmp	r5, #15
    265a:	d107      	bne.n	266c <serial_baud+0xbc>
    265c:	46bb      	mov	r11, r7
    265e:	4699      	mov	r9, r3
    2660:	f8dd a000 	ldr.w	r10, [sp]
    2664:	465f      	mov	r7, r11
    2666:	464b      	mov	r3, r9
    2668:	f8cd a000 	str.w	r10, [sp]
    266c:	7b21      	ldrb	r1, [r4, #12]
    266e:	f041 0180 	orr.w	r1, r1, #128	; 0x80
    2672:	7321      	strb	r1, [r4, #12]
    2674:	f3c3 2107 	ubfx	r1, r3, #8, #8
    2678:	b2db      	uxtb	r3, r3
    267a:	7121      	strb	r1, [r4, #4]
    267c:	7023      	strb	r3, [r4, #0]
    267e:	9b00      	ldr	r3, [sp, #0]
    2680:	ea43 1207 	orr.w	r2, r3, r7, lsl #4
    2684:	b2d2      	uxtb	r2, r2
    2686:	f884 2028 	strb.w	r2, [r4, #40]	; 0x28
    268a:	7b23      	ldrb	r3, [r4, #12]
    268c:	f003 037f 	and.w	r3, r3, #127	; 0x7f
    2690:	7323      	strb	r3, [r4, #12]
    2692:	b007      	add	sp, #28
    2694:	e8bd 8ff0 	ldmia.w	sp!, {r4, r5, r6, r7, r8, r9, r10, r11, pc}
    2698:	4b2d      	ldr	r3, [pc, #180]	; (2750 <serial_baud+0x1a0>)
    269a:	429c      	cmp	r4, r3
    269c:	d029      	beq.n	26f2 <serial_baud+0x142>
    269e:	f503 4380 	add.w	r3, r3, #16384	; 0x4000
    26a2:	429c      	cmp	r4, r3
    26a4:	d191      	bne.n	25ca <serial_baud+0x1a>
    26a6:	4b2b      	ldr	r3, [pc, #172]	; (2754 <serial_baud+0x1a4>)
    26a8:	f8d3 21ac 	ldr.w	r2, [r3, #428]	; 0x1ac
    26ac:	f422 2240 	bic.w	r2, r2, #786432	; 0xc0000
    26b0:	f8c3 21ac 	str.w	r2, [r3, #428]	; 0x1ac
    26b4:	f8d3 21ac 	ldr.w	r2, [r3, #428]	; 0x1ac
    26b8:	f442 2280 	orr.w	r2, r2, #262144	; 0x40000
    26bc:	e024      	b.n	2708 <serial_baud+0x158>
    26be:	4b25      	ldr	r3, [pc, #148]	; (2754 <serial_baud+0x1a4>)
    26c0:	f8d3 21a8 	ldr.w	r2, [r3, #424]	; 0x1a8
    26c4:	f022 02c0 	bic.w	r2, r2, #192	; 0xc0
    26c8:	f8c3 21a8 	str.w	r2, [r3, #424]	; 0x1a8
    26cc:	f8d3 21a8 	ldr.w	r2, [r3, #424]	; 0x1a8
    26d0:	f042 0240 	orr.w	r2, r2, #64	; 0x40
    26d4:	f8c3 21a8 	str.w	r2, [r3, #424]	; 0x1a8
    26d8:	e777      	b.n	25ca <serial_baud+0x1a>
    26da:	4b1e      	ldr	r3, [pc, #120]	; (2754 <serial_baud+0x1a4>)
    26dc:	f8d3 21a8 	ldr.w	r2, [r3, #424]	; 0x1a8
    26e0:	f422 7240 	bic.w	r2, r2, #768	; 0x300
    26e4:	f8c3 21a8 	str.w	r2, [r3, #424]	; 0x1a8
    26e8:	f8d3 21a8 	ldr.w	r2, [r3, #424]	; 0x1a8
    26ec:	f442 7280 	orr.w	r2, r2, #256	; 0x100
    26f0:	e7f0      	b.n	26d4 <serial_baud+0x124>
    26f2:	4b18      	ldr	r3, [pc, #96]	; (2754 <serial_baud+0x1a4>)
    26f4:	f8d3 21ac 	ldr.w	r2, [r3, #428]	; 0x1ac
    26f8:	f422 3240 	bic.w	r2, r2, #196608	; 0x30000
    26fc:	f8c3 21ac 	str.w	r2, [r3, #428]	; 0x1ac
    2700:	f8d3 21ac 	ldr.w	r2, [r3, #428]	; 0x1ac
    2704:	f442 3280 	orr.w	r2, r2, #65536	; 0x10000
    2708:	f8c3 21ac 	str.w	r2, [r3, #428]	; 0x1ac
    270c:	e75d      	b.n	25ca <serial_baud+0x1a>
    270e:	46bb      	mov	r11, r7
    2710:	4699      	mov	r9, r3
    2712:	9a02      	ldr	r2, [sp, #8]
    2714:	f8dd a000 	ldr.w	r10, [sp]
    2718:	9203      	str	r2, [sp, #12]
    271a:	3601      	adds	r6, #1
    271c:	b2f3      	uxtb	r3, r6
    271e:	42bb      	cmp	r3, r7
    2720:	4488      	add	r8, r1
    2722:	f4ff af70 	bcc.w	2606 <serial_baud+0x56>
    2726:	2d0f      	cmp	r5, #15
    2728:	d09c      	beq.n	2664 <serial_baud+0xb4>
    272a:	9b01      	ldr	r3, [sp, #4]
    272c:	3501      	adds	r5, #1
    272e:	440b      	add	r3, r1
    2730:	44e6      	add	lr, r12
    2732:	9301      	str	r3, [sp, #4]
    2734:	e75d      	b.n	25f2 <serial_baud+0x42>
    2736:	2701      	movs	r7, #1
    2738:	9200      	str	r2, [sp, #0]
    273a:	e797      	b.n	266c <serial_baud+0xbc>
    273c:	2e00      	cmp	r6, #0
    273e:	bf0c      	ite	eq
    2740:	2301      	moveq	r3, #1
    2742:	2302      	movne	r3, #2
    2744:	e776      	b.n	2634 <serial_baud+0x84>
    2746:	bf00      	nop
    2748:	40010000 	.word	0x40010000
    274c:	100000e4 	.word	0x100000e4
    2750:	40098000 	.word	0x40098000
    2754:	400fc000 	.word	0x400fc000

00002758 <serial_irq_handler>:
    2758:	4b03      	ldr	r3, [pc, #12]	; (2768 <serial_irq_handler+0x10>)
    275a:	6019      	str	r1, [r3, #0]
    275c:	2338      	movs	r3, #56	; 0x38
    275e:	6841      	ldr	r1, [r0, #4]
    2760:	434b      	muls	r3, r1
    2762:	4902      	ldr	r1, [pc, #8]	; (276c <serial_irq_handler+0x14>)
    2764:	50ca      	str	r2, [r1, r3]
    2766:	4770      	bx	lr
    2768:	100014ac 	.word	0x100014ac
    276c:	100014b4 	.word	0x100014b4

00002770 <serial_getc>:
    2770:	b510      	push	{r4, lr}
    2772:	6802      	ldr	r2, [r0, #0]
    2774:	7d13      	ldrb	r3, [r2, #20]
    2776:	07db      	lsls	r3, r3, #31
    2778:	d5fc      	bpl.n	2774 <serial_getc+0x4>
    277a:	2438      	movs	r4, #56	; 0x38
    277c:	6843      	ldr	r3, [r0, #4]
    277e:	4808      	ldr	r0, [pc, #32]	; (27a0 <serial_getc+0x30>)
    2780:	7811      	ldrb	r1, [r2, #0]
    2782:	fb04 0303 	mla	r3, r4, r3, r0
    2786:	6858      	ldr	r0, [r3, #4]
    2788:	b2c9      	uxtb	r1, r1
    278a:	3001      	adds	r0, #1
    278c:	d006      	beq.n	279c <serial_getc+0x2c>
    278e:	6958      	ldr	r0, [r3, #20]
    2790:	689b      	ldr	r3, [r3, #8]
    2792:	6003      	str	r3, [r0, #0]
    2794:	6853      	ldr	r3, [r2, #4]
    2796:	f043 0301 	orr.w	r3, r3, #1
    279a:	6053      	str	r3, [r2, #4]
    279c:	4608      	mov	r0, r1
    279e:	bd10      	pop	{r4, pc}
    27a0:	100014b4 	.word	0x100014b4

000027a4 <serial_writable>:
    27a4:	2138      	movs	r1, #56	; 0x38
    27a6:	4a11      	ldr	r2, [pc, #68]	; (27ec <serial_writable+0x48>)
    27a8:	6843      	ldr	r3, [r0, #4]
    27aa:	fb01 2303 	mla	r3, r1, r3, r2
    27ae:	69da      	ldr	r2, [r3, #28]
    27b0:	3201      	adds	r2, #1
    27b2:	d009      	beq.n	27c8 <serial_writable+0x24>
    27b4:	6b1a      	ldr	r2, [r3, #48]	; 0x30
    27b6:	6a1b      	ldr	r3, [r3, #32]
    27b8:	6812      	ldr	r2, [r2, #0]
    27ba:	421a      	tst	r2, r3
    27bc:	d114      	bne.n	27e8 <serial_writable+0x44>
    27be:	6803      	ldr	r3, [r0, #0]
    27c0:	7d18      	ldrb	r0, [r3, #20]
    27c2:	f3c0 1080 	ubfx	r0, r0, #6, #1
    27c6:	4770      	bx	lr
    27c8:	6802      	ldr	r2, [r0, #0]
    27ca:	7d12      	ldrb	r2, [r2, #20]
    27cc:	0692      	lsls	r2, r2, #26
    27ce:	d504      	bpl.n	27da <serial_writable+0x36>
    27d0:	2200      	movs	r2, #0
    27d2:	2001      	movs	r0, #1
    27d4:	f883 2034 	strb.w	r2, [r3, #52]	; 0x34
    27d8:	4770      	bx	lr
    27da:	f893 0034 	ldrb.w	r0, [r3, #52]	; 0x34
    27de:	280f      	cmp	r0, #15
    27e0:	bf8c      	ite	hi
    27e2:	2000      	movhi	r0, #0
    27e4:	2001      	movls	r0, #1
    27e6:	4770      	bx	lr
    27e8:	2000      	movs	r0, #0
    27ea:	4770      	bx	lr
    27ec:	100014b4 	.word	0x100014b4

000027f0 <serial_putc>:
    27f0:	b538      	push	{r3, r4, r5, lr}
    27f2:	4604      	mov	r4, r0
    27f4:	460d      	mov	r5, r1
    27f6:	4620      	mov	r0, r4
    27f8:	f7ff ffd4 	bl	27a4 <serial_writable>
    27fc:	2800      	cmp	r0, #0
    27fe:	d0fa      	beq.n	27f6 <serial_putc+0x6>
    2800:	2138      	movs	r1, #56	; 0x38
    2802:	6823      	ldr	r3, [r4, #0]
    2804:	b2ed      	uxtb	r5, r5
    2806:	701d      	strb	r5, [r3, #0]
    2808:	6863      	ldr	r3, [r4, #4]
    280a:	4a04      	ldr	r2, [pc, #16]	; (281c <serial_putc+0x2c>)
    280c:	fb01 2303 	mla	r3, r1, r3, r2
    2810:	f893 2034 	ldrb.w	r2, [r3, #52]	; 0x34
    2814:	3201      	adds	r2, #1
    2816:	f883 2034 	strb.w	r2, [r3, #52]	; 0x34
    281a:	bd38      	pop	{r3, r4, r5, pc}
    281c:	100014b4 	.word	0x100014b4

00002820 <serial_set_flow_control>:
    2820:	e92d 4ff8 	stmdb	sp!, {r3, r4, r5, r6, r7, r8, r9, r10, r11, lr}
    2824:	469a      	mov	r10, r3
    2826:	4c3c      	ldr	r4, [pc, #240]	; (2918 <serial_set_flow_control+0xf8>)
    2828:	6803      	ldr	r3, [r0, #0]
    282a:	4605      	mov	r5, r0
    282c:	42a3      	cmp	r3, r4
    282e:	bf18      	it	ne
    2830:	2400      	movne	r4, #0
    2832:	4689      	mov	r9, r1
    2834:	4690      	mov	r8, r2
    2836:	6847      	ldr	r7, [r0, #4]
    2838:	b11c      	cbz	r4, 2842 <serial_set_flow_control+0x22>
    283a:	7c23      	ldrb	r3, [r4, #16]
    283c:	f003 033f 	and.w	r3, r3, #63	; 0x3f
    2840:	7423      	strb	r3, [r4, #16]
    2842:	2338      	movs	r3, #56	; 0x38
    2844:	f04f 32ff 	mov.w	r2, #4294967295	; 0xffffffff
    2848:	4e34      	ldr	r6, [pc, #208]	; (291c <serial_set_flow_control+0xfc>)
    284a:	4628      	mov	r0, r5
    284c:	fb03 6307 	mla	r3, r3, r7, r6
    2850:	61da      	str	r2, [r3, #28]
    2852:	605a      	str	r2, [r3, #4]
    2854:	2200      	movs	r2, #0
    2856:	f883 2035 	strb.w	r2, [r3, #53]	; 0x35
    285a:	4611      	mov	r1, r2
    285c:	f7ff fe42 	bl	24e4 <serial_irq_set_internal>
    2860:	f1b9 0f00 	cmp.w	r9, #0
    2864:	d055      	beq.n	2912 <serial_set_flow_control+0xf2>
    2866:	492e      	ldr	r1, [pc, #184]	; (2920 <serial_set_flow_control+0x100>)
    2868:	4640      	mov	r0, r8
    286a:	f7fe f843 	bl	8f4 <pinmap_find_peripheral>
    286e:	492d      	ldr	r1, [pc, #180]	; (2924 <serial_set_flow_control+0x104>)
    2870:	4683      	mov	r11, r0
    2872:	4650      	mov	r0, r10
    2874:	f7fe f83e 	bl	8f4 <pinmap_find_peripheral>
    2878:	f1a9 0302 	sub.w	r3, r9, #2
    287c:	2b01      	cmp	r3, #1
    287e:	d81b      	bhi.n	28b8 <serial_set_flow_control+0x98>
    2880:	f1ba 3fff 	cmp.w	r10, #4294967295	; 0xffffffff
    2884:	d00b      	beq.n	289e <serial_set_flow_control+0x7e>
    2886:	4b24      	ldr	r3, [pc, #144]	; (2918 <serial_set_flow_control+0xf8>)
    2888:	4298      	cmp	r0, r3
    288a:	d10d      	bne.n	28a8 <serial_set_flow_control+0x88>
    288c:	b164      	cbz	r4, 28a8 <serial_set_flow_control+0x88>
    288e:	7c23      	ldrb	r3, [r4, #16]
    2890:	4924      	ldr	r1, [pc, #144]	; (2924 <serial_set_flow_control+0x104>)
    2892:	f043 0380 	orr.w	r3, r3, #128	; 0x80
    2896:	7423      	strb	r3, [r4, #16]
    2898:	4650      	mov	r0, r10
    289a:	f7fd fffd 	bl	898 <pinmap_pinout>
    289e:	f1b9 0f03 	cmp.w	r9, #3
    28a2:	d00c      	beq.n	28be <serial_set_flow_control+0x9e>
    28a4:	e8bd 8ff8 	ldmia.w	sp!, {r3, r4, r5, r6, r7, r8, r9, r10, r11, pc}
    28a8:	2038      	movs	r0, #56	; 0x38
    28aa:	fb00 6007 	mla	r0, r0, r7, r6
    28ae:	4651      	mov	r1, r10
    28b0:	301c      	adds	r0, #28
    28b2:	f7fd ffb0 	bl	816 <gpio_init_in>
    28b6:	e7f2      	b.n	289e <serial_set_flow_control+0x7e>
    28b8:	f1b9 0f01 	cmp.w	r9, #1
    28bc:	d129      	bne.n	2912 <serial_set_flow_control+0xf2>
    28be:	f1b8 3fff 	cmp.w	r8, #4294967295	; 0xffffffff
    28c2:	d101      	bne.n	28c8 <serial_set_flow_control+0xa8>
    28c4:	e8bd 8ff8 	ldmia.w	sp!, {r3, r4, r5, r6, r7, r8, r9, r10, r11, pc}
    28c8:	2207      	movs	r2, #7
    28ca:	682b      	ldr	r3, [r5, #0]
    28cc:	721a      	strb	r2, [r3, #8]
    28ce:	4b12      	ldr	r3, [pc, #72]	; (2918 <serial_set_flow_control+0xf8>)
    28d0:	459b      	cmp	r11, r3
    28d2:	d10a      	bne.n	28ea <serial_set_flow_control+0xca>
    28d4:	b14c      	cbz	r4, 28ea <serial_set_flow_control+0xca>
    28d6:	7c23      	ldrb	r3, [r4, #16]
    28d8:	4640      	mov	r0, r8
    28da:	f043 0340 	orr.w	r3, r3, #64	; 0x40
    28de:	7423      	strb	r3, [r4, #16]
    28e0:	490f      	ldr	r1, [pc, #60]	; (2920 <serial_set_flow_control+0x100>)
    28e2:	e8bd 4ff8 	ldmia.w	sp!, {r3, r4, r5, r6, r7, r8, r9, r10, r11, lr}
    28e6:	f7fd bfd7 	b.w	898 <pinmap_pinout>
    28ea:	2438      	movs	r4, #56	; 0x38
    28ec:	fb04 6007 	mla	r0, r4, r7, r6
    28f0:	4641      	mov	r1, r8
    28f2:	2200      	movs	r2, #0
    28f4:	3004      	adds	r0, #4
    28f6:	f7fd ff91 	bl	81c <gpio_init_out_ex>
    28fa:	2201      	movs	r2, #1
    28fc:	686b      	ldr	r3, [r5, #4]
    28fe:	4628      	mov	r0, r5
    2900:	fb04 6603 	mla	r6, r4, r3, r6
    2904:	f886 2035 	strb.w	r2, [r6, #53]	; 0x35
    2908:	2100      	movs	r1, #0
    290a:	e8bd 4ff8 	ldmia.w	sp!, {r3, r4, r5, r6, r7, r8, r9, r10, r11, lr}
    290e:	f7ff bde9 	b.w	24e4 <serial_irq_set_internal>
    2912:	e8bd 8ff8 	ldmia.w	sp!, {r3, r4, r5, r6, r7, r8, r9, r10, r11, pc}
    2916:	bf00      	nop
    2918:	40010000 	.word	0x40010000
    291c:	100014b4 	.word	0x100014b4
    2920:	00008424 	.word	0x00008424
    2924:	00008400 	.word	0x00008400

00002928 <serial_init>:
    2928:	e92d 41f0 	stmdb	sp!, {r4, r5, r6, r7, r8, lr}
    292c:	460f      	mov	r7, r1
    292e:	4605      	mov	r5, r0
    2930:	4946      	ldr	r1, [pc, #280]	; (2a4c <serial_init+0x124>)
    2932:	4638      	mov	r0, r7
    2934:	4616      	mov	r6, r2
    2936:	f7fd ffe9 	bl	90c <pinmap_peripheral>
    293a:	4945      	ldr	r1, [pc, #276]	; (2a50 <serial_init+0x128>)
    293c:	4604      	mov	r4, r0
    293e:	4630      	mov	r0, r6
    2940:	f7fd ffe4 	bl	90c <pinmap_peripheral>
    2944:	4601      	mov	r1, r0
    2946:	4620      	mov	r0, r4
    2948:	f7fd ffc2 	bl	8d0 <pinmap_merge>
    294c:	4b41      	ldr	r3, [pc, #260]	; (2a54 <serial_init+0x12c>)
    294e:	4604      	mov	r4, r0
    2950:	4298      	cmp	r0, r3
    2952:	6028      	str	r0, [r5, #0]
    2954:	d05d      	beq.n	2a12 <serial_init+0xea>
    2956:	d847      	bhi.n	29e8 <serial_init+0xc0>
    2958:	f5a3 4380 	sub.w	r3, r3, #16384	; 0x4000
    295c:	4298      	cmp	r0, r3
    295e:	d050      	beq.n	2a02 <serial_init+0xda>
    2960:	2301      	movs	r3, #1
    2962:	f04f 0800 	mov.w	r8, #0
    2966:	7223      	strb	r3, [r4, #8]
    2968:	f44f 5116 	mov.w	r1, #9600	; 0x2580
    296c:	4628      	mov	r0, r5
    296e:	f8c4 8004 	str.w	r8, [r4, #4]
    2972:	f7ff fe1d 	bl	25b0 <serial_baud>
    2976:	2203      	movs	r2, #3
    2978:	682b      	ldr	r3, [r5, #0]
    297a:	4934      	ldr	r1, [pc, #208]	; (2a4c <serial_init+0x124>)
    297c:	731a      	strb	r2, [r3, #12]
    297e:	4638      	mov	r0, r7
    2980:	f7fd ff8a 	bl	898 <pinmap_pinout>
    2984:	4932      	ldr	r1, [pc, #200]	; (2a50 <serial_init+0x128>)
    2986:	4630      	mov	r0, r6
    2988:	f7fd ff86 	bl	898 <pinmap_pinout>
    298c:	1c7a      	adds	r2, r7, #1
    298e:	d003      	beq.n	2998 <serial_init+0x70>
    2990:	4641      	mov	r1, r8
    2992:	4638      	mov	r0, r7
    2994:	f7ff fd1e 	bl	23d4 <pin_mode>
    2998:	1c73      	adds	r3, r6, #1
    299a:	d003      	beq.n	29a4 <serial_init+0x7c>
    299c:	2100      	movs	r1, #0
    299e:	4630      	mov	r0, r6
    29a0:	f7ff fd18 	bl	23d4 <pin_mode>
    29a4:	4b2b      	ldr	r3, [pc, #172]	; (2a54 <serial_init+0x12c>)
    29a6:	429c      	cmp	r4, r3
    29a8:	d04b      	beq.n	2a42 <serial_init+0x11a>
    29aa:	d83e      	bhi.n	2a2a <serial_init+0x102>
    29ac:	f5a3 4380 	sub.w	r3, r3, #16384	; 0x4000
    29b0:	429c      	cmp	r4, r3
    29b2:	d043      	beq.n	2a3c <serial_init+0x114>
    29b4:	2138      	movs	r1, #56	; 0x38
    29b6:	686a      	ldr	r2, [r5, #4]
    29b8:	4b27      	ldr	r3, [pc, #156]	; (2a58 <serial_init+0x130>)
    29ba:	4628      	mov	r0, r5
    29bc:	fb01 3202 	mla	r2, r1, r2, r3
    29c0:	f04f 33ff 	mov.w	r3, #4294967295	; 0xffffffff
    29c4:	2100      	movs	r1, #0
    29c6:	6053      	str	r3, [r2, #4]
    29c8:	61d3      	str	r3, [r2, #28]
    29ca:	461a      	mov	r2, r3
    29cc:	f7ff ff28 	bl	2820 <serial_set_flow_control>
    29d0:	4b22      	ldr	r3, [pc, #136]	; (2a5c <serial_init+0x134>)
    29d2:	429c      	cmp	r4, r3
    29d4:	d106      	bne.n	29e4 <serial_init+0xbc>
    29d6:	2201      	movs	r2, #1
    29d8:	4b21      	ldr	r3, [pc, #132]	; (2a60 <serial_init+0x138>)
    29da:	6869      	ldr	r1, [r5, #4]
    29dc:	601a      	str	r2, [r3, #0]
    29de:	6828      	ldr	r0, [r5, #0]
    29e0:	4b20      	ldr	r3, [pc, #128]	; (2a64 <serial_init+0x13c>)
    29e2:	c303      	stmia	r3!, {r0, r1}
    29e4:	e8bd 81f0 	ldmia.w	sp!, {r4, r5, r6, r7, r8, pc}
    29e8:	4b1f      	ldr	r3, [pc, #124]	; (2a68 <serial_init+0x140>)
    29ea:	4298      	cmp	r0, r3
    29ec:	d017      	beq.n	2a1e <serial_init+0xf6>
    29ee:	f503 4380 	add.w	r3, r3, #16384	; 0x4000
    29f2:	4298      	cmp	r0, r3
    29f4:	d1b4      	bne.n	2960 <serial_init+0x38>
    29f6:	4a1d      	ldr	r2, [pc, #116]	; (2a6c <serial_init+0x144>)
    29f8:	f8d2 30c4 	ldr.w	r3, [r2, #196]	; 0xc4
    29fc:	f043 7300 	orr.w	r3, r3, #33554432	; 0x2000000
    2a00:	e004      	b.n	2a0c <serial_init+0xe4>
    2a02:	4a1a      	ldr	r2, [pc, #104]	; (2a6c <serial_init+0x144>)
    2a04:	f8d2 30c4 	ldr.w	r3, [r2, #196]	; 0xc4
    2a08:	f043 0308 	orr.w	r3, r3, #8
    2a0c:	f8c2 30c4 	str.w	r3, [r2, #196]	; 0xc4
    2a10:	e7a6      	b.n	2960 <serial_init+0x38>
    2a12:	4a16      	ldr	r2, [pc, #88]	; (2a6c <serial_init+0x144>)
    2a14:	f8d2 30c4 	ldr.w	r3, [r2, #196]	; 0xc4
    2a18:	f043 0310 	orr.w	r3, r3, #16
    2a1c:	e7f6      	b.n	2a0c <serial_init+0xe4>
    2a1e:	4a13      	ldr	r2, [pc, #76]	; (2a6c <serial_init+0x144>)
    2a20:	f8d2 30c4 	ldr.w	r3, [r2, #196]	; 0xc4
    2a24:	f043 7380 	orr.w	r3, r3, #16777216	; 0x1000000
    2a28:	e7f0      	b.n	2a0c <serial_init+0xe4>
    2a2a:	4b0f      	ldr	r3, [pc, #60]	; (2a68 <serial_init+0x140>)
    2a2c:	429c      	cmp	r4, r3
    2a2e:	d00a      	beq.n	2a46 <serial_init+0x11e>
    2a30:	f503 4380 	add.w	r3, r3, #16384	; 0x4000
    2a34:	429c      	cmp	r4, r3
    2a36:	d1bd      	bne.n	29b4 <serial_init+0x8c>
    2a38:	2303      	movs	r3, #3
    2a3a:	e000      	b.n	2a3e <serial_init+0x116>
    2a3c:	2300      	movs	r3, #0
    2a3e:	606b      	str	r3, [r5, #4]
    2a40:	e7b8      	b.n	29b4 <serial_init+0x8c>
    2a42:	2301      	movs	r3, #1
    2a44:	e7fb      	b.n	2a3e <serial_init+0x116>
    2a46:	2302      	movs	r3, #2
    2a48:	e7f9      	b.n	2a3e <serial_init+0x116>
    2a4a:	bf00      	nop
    2a4c:	000084b4 	.word	0x000084b4
    2a50:	00008448 	.word	0x00008448
    2a54:	40010000 	.word	0x40010000
    2a58:	100014b4 	.word	0x100014b4
    2a5c:	4000c000 	.word	0x4000c000
    2a60:	100014b0 	.word	0x100014b0
    2a64:	10002168 	.word	0x10002168
    2a68:	40098000 	.word	0x40098000
    2a6c:	400fc000 	.word	0x400fc000

00002a70 <__NVIC_SetVector>:
    2a70:	b530      	push	{r4, r5, lr}
    2a72:	4c0c      	ldr	r4, [pc, #48]	; (2aa4 <__NVIC_SetVector+0x34>)
    2a74:	68a2      	ldr	r2, [r4, #8]
    2a76:	68a4      	ldr	r4, [r4, #8]
    2a78:	4613      	mov	r3, r2
    2a7a:	f1b4 5f80 	cmp.w	r4, #268435456	; 0x10000000
    2a7e:	d20c      	bcs.n	2a9a <__NVIC_SetVector+0x2a>
    2a80:	1f13      	subs	r3, r2, #4
    2a82:	4c09      	ldr	r4, [pc, #36]	; (2aa8 <__NVIC_SetVector+0x38>)
    2a84:	4a09      	ldr	r2, [pc, #36]	; (2aac <__NVIC_SetVector+0x3c>)
    2a86:	f853 5f04 	ldr.w	r5, [r3, #4]!
    2a8a:	f842 5f04 	str.w	r5, [r2, #4]!
    2a8e:	42a2      	cmp	r2, r4
    2a90:	d1f9      	bne.n	2a86 <__NVIC_SetVector+0x16>
    2a92:	f04f 5380 	mov.w	r3, #268435456	; 0x10000000
    2a96:	4a03      	ldr	r2, [pc, #12]	; (2aa4 <__NVIC_SetVector+0x34>)
    2a98:	6093      	str	r3, [r2, #8]
    2a9a:	3010      	adds	r0, #16
    2a9c:	f843 1020 	str.w	r1, [r3, r0, lsl #2]
    2aa0:	bd30      	pop	{r4, r5, pc}
    2aa2:	bf00      	nop
    2aa4:	e000ed00 	.word	0xe000ed00
    2aa8:	100000c0 	.word	0x100000c0
    2aac:	0ffffffc 	.word	0x0ffffffc

00002ab0 <SystemInit>:
    2ab0:	2220      	movs	r2, #32
    2ab2:	4b26      	ldr	r3, [pc, #152]	; (2b4c <SystemInit+0x9c>)
    2ab4:	f8c3 21a0 	str.w	r2, [r3, #416]	; 0x1a0
    2ab8:	f8d3 21a0 	ldr.w	r2, [r3, #416]	; 0x1a0
    2abc:	0692      	lsls	r2, r2, #26
    2abe:	d503      	bpl.n	2ac8 <SystemInit+0x18>
    2ac0:	f8d3 21a0 	ldr.w	r2, [r3, #416]	; 0x1a0
    2ac4:	0650      	lsls	r0, r2, #25
    2ac6:	d5fb      	bpl.n	2ac0 <SystemInit+0x10>
    2ac8:	2202      	movs	r2, #2
    2aca:	f8c3 2104 	str.w	r2, [r3, #260]	; 0x104
    2ace:	2200      	movs	r2, #0
    2ad0:	2001      	movs	r0, #1
    2ad2:	f8c3 21a8 	str.w	r2, [r3, #424]	; 0x1a8
    2ad6:	f8c3 21ac 	str.w	r2, [r3, #428]	; 0x1ac
    2ada:	220b      	movs	r2, #11
    2adc:	f8c3 010c 	str.w	r0, [r3, #268]	; 0x10c
    2ae0:	21aa      	movs	r1, #170	; 0xaa
    2ae2:	f8c3 2084 	str.w	r2, [r3, #132]	; 0x84
    2ae6:	2255      	movs	r2, #85	; 0x55
    2ae8:	f8c3 108c 	str.w	r1, [r3, #140]	; 0x8c
    2aec:	f8c3 208c 	str.w	r2, [r3, #140]	; 0x8c
    2af0:	f8c3 0080 	str.w	r0, [r3, #128]	; 0x80
    2af4:	f8c3 108c 	str.w	r1, [r3, #140]	; 0x8c
    2af8:	f8c3 208c 	str.w	r2, [r3, #140]	; 0x8c
    2afc:	4b13      	ldr	r3, [pc, #76]	; (2b4c <SystemInit+0x9c>)
    2afe:	461a      	mov	r2, r3
    2b00:	f8d3 1088 	ldr.w	r1, [r3, #136]	; 0x88
    2b04:	0149      	lsls	r1, r1, #5
    2b06:	d5fb      	bpl.n	2b00 <SystemInit+0x50>
    2b08:	2103      	movs	r1, #3
    2b0a:	f8c3 1080 	str.w	r1, [r3, #128]	; 0x80
    2b0e:	21aa      	movs	r1, #170	; 0xaa
    2b10:	f8c3 108c 	str.w	r1, [r3, #140]	; 0x8c
    2b14:	2155      	movs	r1, #85	; 0x55
    2b16:	f8c3 108c 	str.w	r1, [r3, #140]	; 0x8c
    2b1a:	f8d2 3088 	ldr.w	r3, [r2, #136]	; 0x88
    2b1e:	f013 7f40 	tst.w	r3, #50331648	; 0x3000000
    2b22:	d0fa      	beq.n	2b1a <SystemInit+0x6a>
    2b24:	2305      	movs	r3, #5
    2b26:	f8c2 3108 	str.w	r3, [r2, #264]	; 0x108
    2b2a:	4b09      	ldr	r3, [pc, #36]	; (2b50 <SystemInit+0xa0>)
    2b2c:	f8c2 30c4 	str.w	r3, [r2, #196]	; 0xc4
    2b30:	2300      	movs	r3, #0
    2b32:	f8c2 31c8 	str.w	r3, [r2, #456]	; 0x1c8
    2b36:	6813      	ldr	r3, [r2, #0]
    2b38:	f423 4370 	bic.w	r3, r3, #61440	; 0xf000
    2b3c:	f023 033a 	bic.w	r3, r3, #58	; 0x3a
    2b40:	f443 5340 	orr.w	r3, r3, #12288	; 0x3000
    2b44:	f043 033a 	orr.w	r3, r3, #58	; 0x3a
    2b48:	6013      	str	r3, [r2, #0]
    2b4a:	4770      	bx	lr
    2b4c:	400fc000 	.word	0x400fc000
    2b50:	042887de 	.word	0x042887de

00002b54 <mbed::Serial::_getc()>:
    2b54:	f000 bb29 	b.w	31aa <mbed::SerialBase::_base_getc()>

00002b58 <non-virtual thunk to mbed::Serial::_getc()>:
    2b58:	f1a0 0030 	sub.w	r0, r0, #48	; 0x30
    2b5c:	f7ff bffa 	b.w	2b54 <mbed::Serial::_getc()>

00002b60 <mbed::Serial::_putc(int)>:
    2b60:	f000 bb26 	b.w	31b0 <mbed::SerialBase::_base_putc(int)>

00002b64 <non-virtual thunk to mbed::Serial::_putc(int)>:
    2b64:	f1a0 0030 	sub.w	r0, r0, #48	; 0x30
    2b68:	f7ff bffa 	b.w	2b60 <mbed::Serial::_putc(int)>

00002b6c <mbed::Serial::lock()>:
    2b6c:	f04f 31ff 	mov.w	r1, #4294967295	; 0xffffffff
    2b70:	3044      	adds	r0, #68	; 0x44
    2b72:	f000 be89 	b.w	3888 <rtos::Mutex::lock(unsigned long)>

00002b76 <non-virtual thunk to mbed::Serial::lock()>:
    2b76:	f1a0 0030 	sub.w	r0, r0, #48	; 0x30
    2b7a:	f7ff bff7 	b.w	2b6c <mbed::Serial::lock()>

00002b7e <mbed::Serial::unlock()>:
    2b7e:	3044      	adds	r0, #68	; 0x44
    2b80:	f000 be85 	b.w	388e <rtos::Mutex::unlock()>

00002b84 <non-virtual thunk to mbed::Serial::unlock()>:
    2b84:	f1a0 0030 	sub.w	r0, r0, #48	; 0x30
    2b88:	f7ff bff9 	b.w	2b7e <mbed::Serial::unlock()>

00002b8c <mbed::Serial::Serial(PinName, PinName, char const*, int)>:
    2b8c:	b538      	push	{r3, r4, r5, lr}
    2b8e:	4604      	mov	r4, r0
    2b90:	461d      	mov	r5, r3
    2b92:	9b04      	ldr	r3, [sp, #16]
    2b94:	f000 fb14 	bl	31c0 <mbed::SerialBase::SerialBase(PinName, PinName, int)>
    2b98:	4629      	mov	r1, r5
    2b9a:	f104 0030 	add.w	r0, r4, #48	; 0x30
    2b9e:	f000 f849 	bl	2c34 <mbed::Stream::Stream(char const*)>
    2ba2:	4b06      	ldr	r3, [pc, #24]	; (2bbc <mbed::Serial::Serial(PinName, PinName, char const*, int)+0x30>)
    2ba4:	f104 0044 	add.w	r0, r4, #68	; 0x44
    2ba8:	f103 0208 	add.w	r2, r3, #8
    2bac:	3328      	adds	r3, #40	; 0x28
    2bae:	6022      	str	r2, [r4, #0]
    2bb0:	6323      	str	r3, [r4, #48]	; 0x30
    2bb2:	f000 fe51 	bl	3858 <rtos::Mutex::Mutex()>
    2bb6:	4620      	mov	r0, r4
    2bb8:	bd38      	pop	{r3, r4, r5, pc}
    2bba:	bf00      	nop
    2bbc:	00008520 	.word	0x00008520

00002bc0 <mbed::Stream::write(void const*, unsigned int)>:
    2bc0:	b5f8      	push	{r3, r4, r5, r6, r7, lr}
    2bc2:	460e      	mov	r6, r1
    2bc4:	6803      	ldr	r3, [r0, #0]
    2bc6:	4604      	mov	r4, r0
    2bc8:	6b9b      	ldr	r3, [r3, #56]	; 0x38
    2bca:	188f      	adds	r7, r1, r2
    2bcc:	4635      	mov	r5, r6
    2bce:	4798      	blx	r3
    2bd0:	42bd      	cmp	r5, r7
    2bd2:	d007      	beq.n	2be4 <mbed::Stream::write(void const*, unsigned int)+0x24>
    2bd4:	6823      	ldr	r3, [r4, #0]
    2bd6:	f815 1b01 	ldrb.w	r1, [r5], #1
    2bda:	6c1b      	ldr	r3, [r3, #64]	; 0x40
    2bdc:	4620      	mov	r0, r4
    2bde:	4798      	blx	r3
    2be0:	3001      	adds	r0, #1
    2be2:	d1f5      	bne.n	2bd0 <mbed::Stream::write(void const*, unsigned int)+0x10>
    2be4:	6823      	ldr	r3, [r4, #0]
    2be6:	4620      	mov	r0, r4
    2be8:	6bdb      	ldr	r3, [r3, #60]	; 0x3c
    2bea:	4798      	blx	r3
    2bec:	1ba8      	subs	r0, r5, r6
    2bee:	bdf8      	pop	{r3, r4, r5, r6, r7, pc}

00002bf0 <mbed::Stream::read(void*, unsigned int)>:
    2bf0:	b5f8      	push	{r3, r4, r5, r6, r7, lr}
    2bf2:	460e      	mov	r6, r1
    2bf4:	6803      	ldr	r3, [r0, #0]
    2bf6:	4604      	mov	r4, r0
    2bf8:	6b9b      	ldr	r3, [r3, #56]	; 0x38
    2bfa:	188f      	adds	r7, r1, r2
    2bfc:	4635      	mov	r5, r6
    2bfe:	4798      	blx	r3
    2c00:	42bd      	cmp	r5, r7
    2c02:	d008      	beq.n	2c16 <mbed::Stream::read(void*, unsigned int)+0x26>
    2c04:	6823      	ldr	r3, [r4, #0]
    2c06:	4620      	mov	r0, r4
    2c08:	6c5b      	ldr	r3, [r3, #68]	; 0x44
    2c0a:	4798      	blx	r3
    2c0c:	1c43      	adds	r3, r0, #1
    2c0e:	d002      	beq.n	2c16 <mbed::Stream::read(void*, unsigned int)+0x26>
    2c10:	f805 0b01 	strb.w	r0, [r5], #1
    2c14:	e7f4      	b.n	2c00 <mbed::Stream::read(void*, unsigned int)+0x10>
    2c16:	6823      	ldr	r3, [r4, #0]
    2c18:	4620      	mov	r0, r4
    2c1a:	6bdb      	ldr	r3, [r3, #60]	; 0x3c
    2c1c:	4798      	blx	r3
    2c1e:	1ba8      	subs	r0, r5, r6
    2c20:	bdf8      	pop	{r3, r4, r5, r6, r7, pc}

00002c22 <mbed::Stream::seek(long, int)>:
    2c22:	2000      	movs	r0, #0
    2c24:	4770      	bx	lr

00002c26 <mbed::Stream::tell()>:
    2c26:	2000      	movs	r0, #0
    2c28:	4770      	bx	lr

00002c2a <mbed::Stream::rewind()>:
    2c2a:	4770      	bx	lr

00002c2c <mbed::Stream::sync()>:
    2c2c:	2000      	movs	r0, #0
    2c2e:	4770      	bx	lr

00002c30 <mbed::Stream::size()>:
    2c30:	2000      	movs	r0, #0
    2c32:	4770      	bx	lr

00002c34 <mbed::Stream::Stream(char const*)>:
    2c34:	b51f      	push	{r0, r1, r2, r3, r4, lr}
    2c36:	4604      	mov	r4, r0
    2c38:	2200      	movs	r2, #0
    2c3a:	f000 fa17 	bl	306c <mbed::FileBase::FileBase(char const*, mbed::PathType)>
    2c3e:	4b09      	ldr	r3, [pc, #36]	; (2c64 <mbed::Stream::Stream(char const*)+0x30>)
    2c40:	4622      	mov	r2, r4
    2c42:	6023      	str	r3, [r4, #0]
    2c44:	2300      	movs	r3, #0
    2c46:	4908      	ldr	r1, [pc, #32]	; (2c68 <mbed::Stream::Stream(char const*)+0x34>)
    2c48:	6123      	str	r3, [r4, #16]
    2c4a:	a801      	add	r0, sp, #4
    2c4c:	f003 fa2e 	bl	60ac <siprintf>
    2c50:	4906      	ldr	r1, [pc, #24]	; (2c6c <mbed::Stream::Stream(char const*)+0x38>)
    2c52:	a801      	add	r0, sp, #4
    2c54:	f001 ffb4 	bl	4bc0 <fopen>
    2c58:	6120      	str	r0, [r4, #16]
    2c5a:	f000 fcf2 	bl	3642 <mbed::mbed_set_unbuffered_stream(__sFILE*)>
    2c5e:	4620      	mov	r0, r4
    2c60:	b004      	add	sp, #16
    2c62:	bd10      	pop	{r4, pc}
    2c64:	000085e8 	.word	0x000085e8
    2c68:	000085d8 	.word	0x000085d8
    2c6c:	000085dc 	.word	0x000085dc

00002c70 <mbed::Stream::~Stream()>:
    2c70:	b510      	push	{r4, lr}
    2c72:	4604      	mov	r4, r0
    2c74:	4b05      	ldr	r3, [pc, #20]	; (2c8c <mbed::Stream::~Stream()+0x1c>)
    2c76:	6003      	str	r3, [r0, #0]
    2c78:	6900      	ldr	r0, [r0, #16]
    2c7a:	f001 fde7 	bl	484c <fclose>
    2c7e:	4b04      	ldr	r3, [pc, #16]	; (2c90 <mbed::Stream::~Stream()+0x20>)
    2c80:	4620      	mov	r0, r4
    2c82:	6023      	str	r3, [r4, #0]
    2c84:	f000 fa16 	bl	30b4 <mbed::FileBase::~FileBase()>
    2c88:	4620      	mov	r0, r4
    2c8a:	bd10      	pop	{r4, pc}
    2c8c:	000085e8 	.word	0x000085e8
    2c90:	00008598 	.word	0x00008598

00002c94 <mbed::Stream::printf(char const*, ...)>:
    2c94:	b40e      	push	{r1, r2, r3}
    2c96:	b577      	push	{r0, r1, r2, r4, r5, r6, lr}
    2c98:	4604      	mov	r4, r0
    2c9a:	6803      	ldr	r3, [r0, #0]
    2c9c:	ad07      	add	r5, sp, #28
    2c9e:	f855 6b04 	ldr.w	r6, [r5], #4
    2ca2:	6b9b      	ldr	r3, [r3, #56]	; 0x38
    2ca4:	4798      	blx	r3
    2ca6:	6920      	ldr	r0, [r4, #16]
    2ca8:	9501      	str	r5, [sp, #4]
    2caa:	f001 fe89 	bl	49c0 <fflush>
    2cae:	9a01      	ldr	r2, [sp, #4]
    2cb0:	4631      	mov	r1, r6
    2cb2:	6920      	ldr	r0, [r4, #16]
    2cb4:	f002 fb2c 	bl	5310 <vfiprintf>
    2cb8:	4605      	mov	r5, r0
    2cba:	6823      	ldr	r3, [r4, #0]
    2cbc:	4620      	mov	r0, r4
    2cbe:	6bdb      	ldr	r3, [r3, #60]	; 0x3c
    2cc0:	4798      	blx	r3
    2cc2:	4628      	mov	r0, r5
    2cc4:	b003      	add	sp, #12
    2cc6:	e8bd 4070 	ldmia.w	sp!, {r4, r5, r6, lr}
    2cca:	b003      	add	sp, #12
    2ccc:	4770      	bx	lr

00002cce <mbed::Callback<void ()>::~Callback()>:
    2cce:	68c3      	ldr	r3, [r0, #12]
    2cd0:	b510      	push	{r4, lr}
    2cd2:	4604      	mov	r4, r0
    2cd4:	b10b      	cbz	r3, 2cda <mbed::Callback<void ()>::~Callback()+0xc>
    2cd6:	689b      	ldr	r3, [r3, #8]
    2cd8:	4798      	blx	r3
    2cda:	4620      	mov	r0, r4
    2cdc:	bd10      	pop	{r4, pc}
	...

00002ce0 <mbed::I2C::lock()>:
    2ce0:	b570      	push	{r4, r5, r6, lr}
    2ce2:	4c0d      	ldr	r4, [pc, #52]	; (2d18 <mbed::I2C::lock()+0x38>)
    2ce4:	6823      	ldr	r3, [r4, #0]
    2ce6:	b97b      	cbnz	r3, 2d08 <mbed::I2C::lock()+0x28>
    2ce8:	4d0c      	ldr	r5, [pc, #48]	; (2d1c <mbed::I2C::lock()+0x3c>)
    2cea:	f04f 31ff 	mov.w	r1, #4294967295	; 0xffffffff
    2cee:	6828      	ldr	r0, [r5, #0]
    2cf0:	f7fe fd70 	bl	17d4 <osMutexWait>
    2cf4:	6823      	ldr	r3, [r4, #0]
    2cf6:	b923      	cbnz	r3, 2d02 <mbed::I2C::lock()+0x22>
    2cf8:	1d26      	adds	r6, r4, #4
    2cfa:	4630      	mov	r0, r6
    2cfc:	f000 fdac 	bl	3858 <rtos::Mutex::Mutex()>
    2d00:	6026      	str	r6, [r4, #0]
    2d02:	6828      	ldr	r0, [r5, #0]
    2d04:	f7fe fd8e 	bl	1824 <osMutexRelease>
    2d08:	6820      	ldr	r0, [r4, #0]
    2d0a:	f04f 31ff 	mov.w	r1, #4294967295	; 0xffffffff
    2d0e:	e8bd 4070 	ldmia.w	sp!, {r4, r5, r6, lr}
    2d12:	f000 bdb9 	b.w	3888 <rtos::Mutex::lock(unsigned long)>
    2d16:	bf00      	nop
    2d18:	10001594 	.word	0x10001594
    2d1c:	100019dc 	.word	0x100019dc

00002d20 <mbed::I2C::unlock()>:
    2d20:	b570      	push	{r4, r5, r6, lr}
    2d22:	4c0c      	ldr	r4, [pc, #48]	; (2d54 <mbed::I2C::unlock()+0x34>)
    2d24:	6823      	ldr	r3, [r4, #0]
    2d26:	b97b      	cbnz	r3, 2d48 <mbed::I2C::unlock()+0x28>
    2d28:	4d0b      	ldr	r5, [pc, #44]	; (2d58 <mbed::I2C::unlock()+0x38>)
    2d2a:	f04f 31ff 	mov.w	r1, #4294967295	; 0xffffffff
    2d2e:	6828      	ldr	r0, [r5, #0]
    2d30:	f7fe fd50 	bl	17d4 <osMutexWait>
    2d34:	6823      	ldr	r3, [r4, #0]
    2d36:	b923      	cbnz	r3, 2d42 <mbed::I2C::unlock()+0x22>
    2d38:	1d26      	adds	r6, r4, #4
    2d3a:	4630      	mov	r0, r6
    2d3c:	f000 fd8c 	bl	3858 <rtos::Mutex::Mutex()>
    2d40:	6026      	str	r6, [r4, #0]
    2d42:	6828      	ldr	r0, [r5, #0]
    2d44:	f7fe fd6e 	bl	1824 <osMutexRelease>
    2d48:	6820      	ldr	r0, [r4, #0]
    2d4a:	e8bd 4070 	ldmia.w	sp!, {r4, r5, r6, lr}
    2d4e:	f000 bd9e 	b.w	388e <rtos::Mutex::unlock()>
    2d52:	bf00      	nop
    2d54:	10001594 	.word	0x10001594
    2d58:	100019dc 	.word	0x100019dc

00002d5c <mbed::I2C::I2C(PinName, PinName)>:
    2d5c:	4b07      	ldr	r3, [pc, #28]	; (2d7c <mbed::I2C::I2C(PinName, PinName)+0x20>)
    2d5e:	b510      	push	{r4, lr}
    2d60:	6003      	str	r3, [r0, #0]
    2d62:	2300      	movs	r3, #0
    2d64:	4604      	mov	r4, r0
    2d66:	6043      	str	r3, [r0, #4]
    2d68:	4b05      	ldr	r3, [pc, #20]	; (2d80 <mbed::I2C::I2C(PinName, PinName)+0x24>)
    2d6a:	3004      	adds	r0, #4
    2d6c:	6043      	str	r3, [r0, #4]
    2d6e:	f7ff fa27 	bl	21c0 <i2c_init>
    2d72:	4b04      	ldr	r3, [pc, #16]	; (2d84 <mbed::I2C::I2C(PinName, PinName)+0x28>)
    2d74:	4620      	mov	r0, r4
    2d76:	601c      	str	r4, [r3, #0]
    2d78:	bd10      	pop	{r4, pc}
    2d7a:	bf00      	nop
    2d7c:	00008638 	.word	0x00008638
    2d80:	000186a0 	.word	0x000186a0
    2d84:	100015b0 	.word	0x100015b0

00002d88 <mbed::I2C::aquire()>:
    2d88:	b570      	push	{r4, r5, r6, lr}
    2d8a:	4604      	mov	r4, r0
    2d8c:	6803      	ldr	r3, [r0, #0]
    2d8e:	4d08      	ldr	r5, [pc, #32]	; (2db0 <mbed::I2C::aquire()+0x28>)
    2d90:	681b      	ldr	r3, [r3, #0]
    2d92:	4798      	blx	r3
    2d94:	682b      	ldr	r3, [r5, #0]
    2d96:	429c      	cmp	r4, r3
    2d98:	d004      	beq.n	2da4 <mbed::I2C::aquire()+0x1c>
    2d9a:	68a1      	ldr	r1, [r4, #8]
    2d9c:	1d20      	adds	r0, r4, #4
    2d9e:	f7ff fa03 	bl	21a8 <i2c_frequency>
    2da2:	602c      	str	r4, [r5, #0]
    2da4:	6823      	ldr	r3, [r4, #0]
    2da6:	4620      	mov	r0, r4
    2da8:	e8bd 4070 	ldmia.w	sp!, {r4, r5, r6, lr}
    2dac:	685b      	ldr	r3, [r3, #4]
    2dae:	4718      	bx	r3
    2db0:	100015b0 	.word	0x100015b0

00002db4 <mbed::I2C::write(int, char const*, int, bool)>:
    2db4:	b5f7      	push	{r0, r1, r2, r4, r5, r6, r7, lr}
    2db6:	4604      	mov	r4, r0
    2db8:	460e      	mov	r6, r1
    2dba:	4617      	mov	r7, r2
    2dbc:	461d      	mov	r5, r3
    2dbe:	6803      	ldr	r3, [r0, #0]
    2dc0:	681b      	ldr	r3, [r3, #0]
    2dc2:	4798      	blx	r3
    2dc4:	4620      	mov	r0, r4
    2dc6:	f7ff ffdf 	bl	2d88 <mbed::I2C::aquire()>
    2dca:	f89d 3020 	ldrb.w	r3, [sp, #32]
    2dce:	4631      	mov	r1, r6
    2dd0:	f083 0301 	eor.w	r3, r3, #1
    2dd4:	9300      	str	r3, [sp, #0]
    2dd6:	463a      	mov	r2, r7
    2dd8:	462b      	mov	r3, r5
    2dda:	1d20      	adds	r0, r4, #4
    2ddc:	f7ff fa9a 	bl	2314 <i2c_write>
    2de0:	4606      	mov	r6, r0
    2de2:	6823      	ldr	r3, [r4, #0]
    2de4:	4620      	mov	r0, r4
    2de6:	685b      	ldr	r3, [r3, #4]
    2de8:	4798      	blx	r3
    2dea:	1ba8      	subs	r0, r5, r6
    2dec:	bf18      	it	ne
    2dee:	2001      	movne	r0, #1
    2df0:	b003      	add	sp, #12
    2df2:	bdf0      	pop	{r4, r5, r6, r7, pc}

00002df4 <mbed::I2C::read(int, char*, int, bool)>:
    2df4:	b5f7      	push	{r0, r1, r2, r4, r5, r6, r7, lr}
    2df6:	4604      	mov	r4, r0
    2df8:	460e      	mov	r6, r1
    2dfa:	4617      	mov	r7, r2
    2dfc:	461d      	mov	r5, r3
    2dfe:	6803      	ldr	r3, [r0, #0]
    2e00:	681b      	ldr	r3, [r3, #0]
    2e02:	4798      	blx	r3
    2e04:	4620      	mov	r0, r4
    2e06:	f7ff ffbf 	bl	2d88 <mbed::I2C::aquire()>
    2e0a:	f89d 3020 	ldrb.w	r3, [sp, #32]
    2e0e:	4631      	mov	r1, r6
    2e10:	f083 0301 	eor.w	r3, r3, #1
    2e14:	9300      	str	r3, [sp, #0]
    2e16:	463a      	mov	r2, r7
    2e18:	462b      	mov	r3, r5
    2e1a:	1d20      	adds	r0, r4, #4
    2e1c:	f7ff fa1e 	bl	225c <i2c_read>
    2e20:	4606      	mov	r6, r0
    2e22:	6823      	ldr	r3, [r4, #0]
    2e24:	4620      	mov	r0, r4
    2e26:	685b      	ldr	r3, [r3, #4]
    2e28:	4798      	blx	r3
    2e2a:	1ba8      	subs	r0, r5, r6
    2e2c:	bf18      	it	ne
    2e2e:	2001      	movne	r0, #1
    2e30:	b003      	add	sp, #12
    2e32:	bdf0      	pop	{r4, r5, r6, r7, pc}

00002e34 <mbed::BusOut::~BusOut()>:
    2e34:	b570      	push	{r4, r5, r6, lr}
    2e36:	4604      	mov	r4, r0
    2e38:	4605      	mov	r5, r0
    2e3a:	4b09      	ldr	r3, [pc, #36]	; (2e60 <mbed::BusOut::~BusOut()+0x2c>)
    2e3c:	f100 0644 	add.w	r6, r0, #68	; 0x44
    2e40:	f844 3b04 	str.w	r3, [r4], #4
    2e44:	f854 0b04 	ldr.w	r0, [r4], #4
    2e48:	b108      	cbz	r0, 2e4e <mbed::BusOut::~BusOut()+0x1a>
    2e4a:	f000 fc1e 	bl	368a <operator delete(void*)>
    2e4e:	42b4      	cmp	r4, r6
    2e50:	d1f8      	bne.n	2e44 <mbed::BusOut::~BusOut()+0x10>
    2e52:	f105 0048 	add.w	r0, r5, #72	; 0x48
    2e56:	f000 fd1d 	bl	3894 <rtos::Mutex::~Mutex()>
    2e5a:	4628      	mov	r0, r5
    2e5c:	bd70      	pop	{r4, r5, r6, pc}
    2e5e:	bf00      	nop
    2e60:	00008650 	.word	0x00008650

00002e64 <mbed::BusOut::~BusOut()>:
    2e64:	b510      	push	{r4, lr}
    2e66:	4604      	mov	r4, r0
    2e68:	f7ff ffe4 	bl	2e34 <mbed::BusOut::~BusOut()>
    2e6c:	4620      	mov	r0, r4
    2e6e:	f000 fc0c 	bl	368a <operator delete(void*)>
    2e72:	4620      	mov	r0, r4
    2e74:	bd10      	pop	{r4, pc}

00002e76 <mbed::BusOut::lock()>:
    2e76:	f04f 31ff 	mov.w	r1, #4294967295	; 0xffffffff
    2e7a:	3048      	adds	r0, #72	; 0x48
    2e7c:	f000 bd04 	b.w	3888 <rtos::Mutex::lock(unsigned long)>

00002e80 <mbed::BusOut::unlock()>:
    2e80:	3048      	adds	r0, #72	; 0x48
    2e82:	f000 bd04 	b.w	388e <rtos::Mutex::unlock()>
	...

00002e88 <mbed::BusOut::BusOut(PinName, PinName, PinName, PinName, PinName, PinName, PinName, PinName, PinName, PinName, PinName, PinName, PinName, PinName, PinName, PinName)>:
    2e88:	e92d 41f0 	stmdb	sp!, {r4, r5, r6, r7, r8, lr}
    2e8c:	461c      	mov	r4, r3
    2e8e:	4b27      	ldr	r3, [pc, #156]	; (2f2c <mbed::BusOut::BusOut(PinName, PinName, PinName, PinName, PinName, PinName, PinName, PinName, PinName, PinName, PinName, PinName, PinName, PinName, PinName, PinName)+0xa4>)
    2e90:	b090      	sub	sp, #64	; 0x40
    2e92:	4605      	mov	r5, r0
    2e94:	f840 3b48 	str.w	r3, [r0], #72
    2e98:	460f      	mov	r7, r1
    2e9a:	4616      	mov	r6, r2
    2e9c:	f000 fcdc 	bl	3858 <rtos::Mutex::Mutex()>
    2ea0:	9402      	str	r4, [sp, #8]
    2ea2:	2400      	movs	r4, #0
    2ea4:	9b16      	ldr	r3, [sp, #88]	; 0x58
    2ea6:	9700      	str	r7, [sp, #0]
    2ea8:	9303      	str	r3, [sp, #12]
    2eaa:	9b17      	ldr	r3, [sp, #92]	; 0x5c
    2eac:	9601      	str	r6, [sp, #4]
    2eae:	9304      	str	r3, [sp, #16]
    2eb0:	9b18      	ldr	r3, [sp, #96]	; 0x60
    2eb2:	646c      	str	r4, [r5, #68]	; 0x44
    2eb4:	9305      	str	r3, [sp, #20]
    2eb6:	9b19      	ldr	r3, [sp, #100]	; 0x64
    2eb8:	1d2f      	adds	r7, r5, #4
    2eba:	9306      	str	r3, [sp, #24]
    2ebc:	9b1a      	ldr	r3, [sp, #104]	; 0x68
    2ebe:	9307      	str	r3, [sp, #28]
    2ec0:	9b1b      	ldr	r3, [sp, #108]	; 0x6c
    2ec2:	9308      	str	r3, [sp, #32]
    2ec4:	9b1c      	ldr	r3, [sp, #112]	; 0x70
    2ec6:	9309      	str	r3, [sp, #36]	; 0x24
    2ec8:	9b1d      	ldr	r3, [sp, #116]	; 0x74
    2eca:	930a      	str	r3, [sp, #40]	; 0x28
    2ecc:	9b1e      	ldr	r3, [sp, #120]	; 0x78
    2ece:	930b      	str	r3, [sp, #44]	; 0x2c
    2ed0:	9b1f      	ldr	r3, [sp, #124]	; 0x7c
    2ed2:	930c      	str	r3, [sp, #48]	; 0x30
    2ed4:	9b20      	ldr	r3, [sp, #128]	; 0x80
    2ed6:	930d      	str	r3, [sp, #52]	; 0x34
    2ed8:	9b21      	ldr	r3, [sp, #132]	; 0x84
    2eda:	930e      	str	r3, [sp, #56]	; 0x38
    2edc:	9b22      	ldr	r3, [sp, #136]	; 0x88
    2ede:	930f      	str	r3, [sp, #60]	; 0x3c
    2ee0:	f85d 8024 	ldr.w	r8, [sp, r4, lsl #2]
    2ee4:	f1b8 3fff 	cmp.w	r8, #4294967295	; 0xffffffff
    2ee8:	d01d      	beq.n	2f26 <mbed::BusOut::BusOut(PinName, PinName, PinName, PinName, PinName, PinName, PinName, PinName, PinName, PinName, PinName, PinName, PinName, PinName, PinName, PinName)+0x9e>
    2eea:	2018      	movs	r0, #24
    2eec:	f000 fbb4 	bl	3658 <operator new(unsigned int)>
    2ef0:	4606      	mov	r6, r0
    2ef2:	2100      	movs	r1, #0
    2ef4:	2218      	movs	r2, #24
    2ef6:	f001 ffe6 	bl	4ec6 <memset>
    2efa:	4641      	mov	r1, r8
    2efc:	4630      	mov	r0, r6
    2efe:	f7fd fc9d 	bl	83c <gpio_init_out>
    2f02:	f1b8 3fff 	cmp.w	r8, #4294967295	; 0xffffffff
    2f06:	f847 6b04 	str.w	r6, [r7], #4
    2f0a:	d005      	beq.n	2f18 <mbed::BusOut::BusOut(PinName, PinName, PinName, PinName, PinName, PinName, PinName, PinName, PinName, PinName, PinName, PinName, PinName, PinName, PinName, PinName)+0x90>
    2f0c:	2301      	movs	r3, #1
    2f0e:	fa03 f204 	lsl.w	r2, r3, r4
    2f12:	6c6b      	ldr	r3, [r5, #68]	; 0x44
    2f14:	4313      	orrs	r3, r2
    2f16:	646b      	str	r3, [r5, #68]	; 0x44
    2f18:	3401      	adds	r4, #1
    2f1a:	2c10      	cmp	r4, #16
    2f1c:	d1e0      	bne.n	2ee0 <mbed::BusOut::BusOut(PinName, PinName, PinName, PinName, PinName, PinName, PinName, PinName, PinName, PinName, PinName, PinName, PinName, PinName, PinName, PinName)+0x58>
    2f1e:	4628      	mov	r0, r5
    2f20:	b010      	add	sp, #64	; 0x40
    2f22:	e8bd 81f0 	ldmia.w	sp!, {r4, r5, r6, r7, r8, pc}
    2f26:	2600      	movs	r6, #0
    2f28:	e7eb      	b.n	2f02 <mbed::BusOut::BusOut(PinName, PinName, PinName, PinName, PinName, PinName, PinName, PinName, PinName, PinName, PinName, PinName, PinName, PinName, PinName, PinName)+0x7a>
    2f2a:	bf00      	nop
    2f2c:	00008650 	.word	0x00008650

00002f30 <mbed::BusOut::write(int)>:
    2f30:	b570      	push	{r4, r5, r6, lr}
    2f32:	4604      	mov	r4, r0
    2f34:	f854 3b04 	ldr.w	r3, [r4], #4
    2f38:	4605      	mov	r5, r0
    2f3a:	689b      	ldr	r3, [r3, #8]
    2f3c:	460e      	mov	r6, r1
    2f3e:	4798      	blx	r3
    2f40:	2300      	movs	r3, #0
    2f42:	f854 2b04 	ldr.w	r2, [r4], #4
    2f46:	b142      	cbz	r2, 2f5a <mbed::BusOut::write(int)+0x2a>
    2f48:	fa46 f103 	asr.w	r1, r6, r3
    2f4c:	f011 0f01 	tst.w	r1, #1
    2f50:	6850      	ldr	r0, [r2, #4]
    2f52:	bf14      	ite	ne
    2f54:	68d2      	ldrne	r2, [r2, #12]
    2f56:	6912      	ldreq	r2, [r2, #16]
    2f58:	6010      	str	r0, [r2, #0]
    2f5a:	3301      	adds	r3, #1
    2f5c:	2b10      	cmp	r3, #16
    2f5e:	d1f0      	bne.n	2f42 <mbed::BusOut::write(int)+0x12>
    2f60:	682b      	ldr	r3, [r5, #0]
    2f62:	4628      	mov	r0, r5
    2f64:	e8bd 4070 	ldmia.w	sp!, {r4, r5, r6, lr}
    2f68:	68db      	ldr	r3, [r3, #12]
    2f6a:	4718      	bx	r3

00002f6c <mbed::BusOut::operator=(int)>:
    2f6c:	b510      	push	{r4, lr}
    2f6e:	4604      	mov	r4, r0
    2f70:	f7ff ffde 	bl	2f30 <mbed::BusOut::write(int)>
    2f74:	4620      	mov	r0, r4
    2f76:	bd10      	pop	{r4, pc}

00002f78 <mbed::FilePath::FilePath(char const*)>:
    2f78:	2300      	movs	r3, #0
    2f7a:	b510      	push	{r4, lr}
    2f7c:	6003      	str	r3, [r0, #0]
    2f7e:	6043      	str	r3, [r0, #4]
    2f80:	780a      	ldrb	r2, [r1, #0]
    2f82:	4604      	mov	r4, r0
    2f84:	2a2f      	cmp	r2, #47	; 0x2f
    2f86:	d10d      	bne.n	2fa4 <mbed::FilePath::FilePath(char const*)+0x2c>
    2f88:	784a      	ldrb	r2, [r1, #1]
    2f8a:	b15a      	cbz	r2, 2fa4 <mbed::FilePath::FilePath(char const*)+0x2c>
    2f8c:	1c48      	adds	r0, r1, #1
    2f8e:	4619      	mov	r1, r3
    2f90:	6020      	str	r0, [r4, #0]
    2f92:	6823      	ldr	r3, [r4, #0]
    2f94:	781a      	ldrb	r2, [r3, #0]
    2f96:	2a2f      	cmp	r2, #47	; 0x2f
    2f98:	d106      	bne.n	2fa8 <mbed::FilePath::FilePath(char const*)+0x30>
    2f9a:	3301      	adds	r3, #1
    2f9c:	6023      	str	r3, [r4, #0]
    2f9e:	f000 f8bf 	bl	3120 <mbed::FileBase::lookup(char const*, unsigned int)>
    2fa2:	6060      	str	r0, [r4, #4]
    2fa4:	4620      	mov	r0, r4
    2fa6:	bd10      	pop	{r4, pc}
    2fa8:	2a00      	cmp	r2, #0
    2faa:	d0f8      	beq.n	2f9e <mbed::FilePath::FilePath(char const*)+0x26>
    2fac:	3301      	adds	r3, #1
    2fae:	3101      	adds	r1, #1
    2fb0:	6023      	str	r3, [r4, #0]
    2fb2:	e7ee      	b.n	2f92 <mbed::FilePath::FilePath(char const*)+0x1a>

00002fb4 <mbed::FilePath::fileName()>:
    2fb4:	6800      	ldr	r0, [r0, #0]
    2fb6:	4770      	bx	lr

00002fb8 <mbed::FilePath::isFileSystem()>:
    2fb8:	6840      	ldr	r0, [r0, #4]
    2fba:	b508      	push	{r3, lr}
    2fbc:	b120      	cbz	r0, 2fc8 <mbed::FilePath::isFileSystem()+0x10>
    2fbe:	f000 f839 	bl	3034 <mbed::FileBase::getPathType()>
    2fc2:	1e43      	subs	r3, r0, #1
    2fc4:	4258      	negs	r0, r3
    2fc6:	4158      	adcs	r0, r3
    2fc8:	bd08      	pop	{r3, pc}

00002fca <mbed::FilePath::fileSystem()>:
    2fca:	b510      	push	{r4, lr}
    2fcc:	4604      	mov	r4, r0
    2fce:	f7ff fff3 	bl	2fb8 <mbed::FilePath::isFileSystem()>
    2fd2:	b100      	cbz	r0, 2fd6 <mbed::FilePath::fileSystem()+0xc>
    2fd4:	6860      	ldr	r0, [r4, #4]
    2fd6:	bd10      	pop	{r4, pc}

00002fd8 <mbed::FilePath::isFile()>:
    2fd8:	6840      	ldr	r0, [r0, #4]
    2fda:	b508      	push	{r3, lr}
    2fdc:	b120      	cbz	r0, 2fe8 <mbed::FilePath::isFile()+0x10>
    2fde:	f000 f829 	bl	3034 <mbed::FileBase::getPathType()>
    2fe2:	fab0 f080 	clz	r0, r0
    2fe6:	0940      	lsrs	r0, r0, #5
    2fe8:	bd08      	pop	{r3, pc}

00002fea <mbed::FilePath::file()>:
    2fea:	b510      	push	{r4, lr}
    2fec:	4604      	mov	r4, r0
    2fee:	f7ff fff3 	bl	2fd8 <mbed::FilePath::isFile()>
    2ff2:	b100      	cbz	r0, 2ff6 <mbed::FilePath::file()+0xc>
    2ff4:	6860      	ldr	r0, [r4, #4]
    2ff6:	bd10      	pop	{r4, pc}

00002ff8 <mbed::FilePath::exists()>:
    2ff8:	6840      	ldr	r0, [r0, #4]
    2ffa:	3000      	adds	r0, #0
    2ffc:	bf18      	it	ne
    2ffe:	2001      	movne	r0, #1
    3000:	4770      	bx	lr

00003002 <void mbed::Callback<void ()>::function_call<void (*)()>(void const*)>:
    3002:	6803      	ldr	r3, [r0, #0]
    3004:	4718      	bx	r3

00003006 <void mbed::Callback<void ()>::function_move<void (*)()>(void*, void const*)>:
    3006:	b108      	cbz	r0, 300c <void mbed::Callback<void ()>::function_move<void (*)()>(void*, void const*)+0x6>
    3008:	680b      	ldr	r3, [r1, #0]
    300a:	6003      	str	r3, [r0, #0]
    300c:	4770      	bx	lr

0000300e <void mbed::Callback<void ()>::function_dtor<void (*)()>(void*)>:
    300e:	4770      	bx	lr

00003010 <mbed::Callback<void ()>::operator=(mbed::Callback<void ()> const&)>:
    3010:	4288      	cmp	r0, r1
    3012:	b538      	push	{r3, r4, r5, lr}
    3014:	4604      	mov	r4, r0
    3016:	460d      	mov	r5, r1
    3018:	d00a      	beq.n	3030 <mbed::Callback<void ()>::operator=(mbed::Callback<void ()> const&)+0x20>
    301a:	f7ff fe58 	bl	2cce <mbed::Callback<void ()>::~Callback()>
    301e:	b13c      	cbz	r4, 3030 <mbed::Callback<void ()>::operator=(mbed::Callback<void ()> const&)+0x20>
    3020:	68eb      	ldr	r3, [r5, #12]
    3022:	b11b      	cbz	r3, 302c <mbed::Callback<void ()>::operator=(mbed::Callback<void ()> const&)+0x1c>
    3024:	685b      	ldr	r3, [r3, #4]
    3026:	4629      	mov	r1, r5
    3028:	4620      	mov	r0, r4
    302a:	4798      	blx	r3
    302c:	68eb      	ldr	r3, [r5, #12]
    302e:	60e3      	str	r3, [r4, #12]
    3030:	4620      	mov	r0, r4
    3032:	bd38      	pop	{r3, r4, r5, pc}

00003034 <mbed::FileBase::getPathType()>:
    3034:	7b00      	ldrb	r0, [r0, #12]
    3036:	4770      	bx	lr

00003038 <SingletonPtr<rtos::Mutex>::get()>:
    3038:	6803      	ldr	r3, [r0, #0]
    303a:	b570      	push	{r4, r5, r6, lr}
    303c:	4604      	mov	r4, r0
    303e:	b983      	cbnz	r3, 3062 <SingletonPtr<rtos::Mutex>::get()+0x2a>
    3040:	4d09      	ldr	r5, [pc, #36]	; (3068 <SingletonPtr<rtos::Mutex>::get()+0x30>)
    3042:	f04f 31ff 	mov.w	r1, #4294967295	; 0xffffffff
    3046:	6828      	ldr	r0, [r5, #0]
    3048:	f7fe fbc4 	bl	17d4 <osMutexWait>
    304c:	6823      	ldr	r3, [r4, #0]
    304e:	b92b      	cbnz	r3, 305c <SingletonPtr<rtos::Mutex>::get()+0x24>
    3050:	1d26      	adds	r6, r4, #4
    3052:	d002      	beq.n	305a <SingletonPtr<rtos::Mutex>::get()+0x22>
    3054:	4630      	mov	r0, r6
    3056:	f000 fbff 	bl	3858 <rtos::Mutex::Mutex()>
    305a:	6026      	str	r6, [r4, #0]
    305c:	6828      	ldr	r0, [r5, #0]
    305e:	f7fe fbe1 	bl	1824 <osMutexRelease>
    3062:	6820      	ldr	r0, [r4, #0]
    3064:	bd70      	pop	{r4, r5, r6, pc}
    3066:	bf00      	nop
    3068:	100019dc 	.word	0x100019dc

0000306c <mbed::FileBase::FileBase(char const*, mbed::PathType)>:
    306c:	b538      	push	{r3, r4, r5, lr}
    306e:	4b0e      	ldr	r3, [pc, #56]	; (30a8 <mbed::FileBase::FileBase(char const*, mbed::PathType)+0x3c>)
    3070:	4604      	mov	r4, r0
    3072:	6003      	str	r3, [r0, #0]
    3074:	2300      	movs	r3, #0
    3076:	460d      	mov	r5, r1
    3078:	6043      	str	r3, [r0, #4]
    307a:	60a1      	str	r1, [r4, #8]
    307c:	7302      	strb	r2, [r0, #12]
    307e:	480b      	ldr	r0, [pc, #44]	; (30ac <mbed::FileBase::FileBase(char const*, mbed::PathType)+0x40>)
    3080:	f7ff ffda 	bl	3038 <SingletonPtr<rtos::Mutex>::get()>
    3084:	f04f 31ff 	mov.w	r1, #4294967295	; 0xffffffff
    3088:	f000 fbfe 	bl	3888 <rtos::Mutex::lock(unsigned long)>
    308c:	b155      	cbz	r5, 30a4 <mbed::FileBase::FileBase(char const*, mbed::PathType)+0x38>
    308e:	4b08      	ldr	r3, [pc, #32]	; (30b0 <mbed::FileBase::FileBase(char const*, mbed::PathType)+0x44>)
    3090:	681a      	ldr	r2, [r3, #0]
    3092:	601c      	str	r4, [r3, #0]
    3094:	6062      	str	r2, [r4, #4]
    3096:	4805      	ldr	r0, [pc, #20]	; (30ac <mbed::FileBase::FileBase(char const*, mbed::PathType)+0x40>)
    3098:	f7ff ffce 	bl	3038 <SingletonPtr<rtos::Mutex>::get()>
    309c:	f000 fbf7 	bl	388e <rtos::Mutex::unlock()>
    30a0:	4620      	mov	r0, r4
    30a2:	bd38      	pop	{r3, r4, r5, pc}
    30a4:	6065      	str	r5, [r4, #4]
    30a6:	e7f6      	b.n	3096 <mbed::FileBase::FileBase(char const*, mbed::PathType)+0x2a>
    30a8:	00008674 	.word	0x00008674
    30ac:	100015b8 	.word	0x100015b8
    30b0:	100015b4 	.word	0x100015b4

000030b4 <mbed::FileBase::~FileBase()>:
    30b4:	b510      	push	{r4, lr}
    30b6:	4604      	mov	r4, r0
    30b8:	4b11      	ldr	r3, [pc, #68]	; (3100 <mbed::FileBase::~FileBase()+0x4c>)
    30ba:	6003      	str	r3, [r0, #0]
    30bc:	4811      	ldr	r0, [pc, #68]	; (3104 <mbed::FileBase::~FileBase()+0x50>)
    30be:	f7ff ffbb 	bl	3038 <SingletonPtr<rtos::Mutex>::get()>
    30c2:	f04f 31ff 	mov.w	r1, #4294967295	; 0xffffffff
    30c6:	f000 fbdf 	bl	3888 <rtos::Mutex::lock(unsigned long)>
    30ca:	68a3      	ldr	r3, [r4, #8]
    30cc:	b12b      	cbz	r3, 30da <mbed::FileBase::~FileBase()+0x26>
    30ce:	4a0e      	ldr	r2, [pc, #56]	; (3108 <mbed::FileBase::~FileBase()+0x54>)
    30d0:	6813      	ldr	r3, [r2, #0]
    30d2:	429c      	cmp	r4, r3
    30d4:	d10e      	bne.n	30f4 <mbed::FileBase::~FileBase()+0x40>
    30d6:	6863      	ldr	r3, [r4, #4]
    30d8:	6013      	str	r3, [r2, #0]
    30da:	480a      	ldr	r0, [pc, #40]	; (3104 <mbed::FileBase::~FileBase()+0x50>)
    30dc:	f7ff ffac 	bl	3038 <SingletonPtr<rtos::Mutex>::get()>
    30e0:	f000 fbd5 	bl	388e <rtos::Mutex::unlock()>
    30e4:	7b23      	ldrb	r3, [r4, #12]
    30e6:	b913      	cbnz	r3, 30ee <mbed::FileBase::~FileBase()+0x3a>
    30e8:	4620      	mov	r0, r4
    30ea:	f000 fad1 	bl	3690 <mbed::remove_filehandle(mbed::FileLike*)>
    30ee:	4620      	mov	r0, r4
    30f0:	bd10      	pop	{r4, pc}
    30f2:	4613      	mov	r3, r2
    30f4:	685a      	ldr	r2, [r3, #4]
    30f6:	4294      	cmp	r4, r2
    30f8:	d1fb      	bne.n	30f2 <mbed::FileBase::~FileBase()+0x3e>
    30fa:	6862      	ldr	r2, [r4, #4]
    30fc:	605a      	str	r2, [r3, #4]
    30fe:	e7ec      	b.n	30da <mbed::FileBase::~FileBase()+0x26>
    3100:	00008674 	.word	0x00008674
    3104:	100015b8 	.word	0x100015b8
    3108:	100015b4 	.word	0x100015b4

0000310c <mbed::FileBase::~FileBase()>:
    310c:	b510      	push	{r4, lr}
    310e:	4604      	mov	r4, r0
    3110:	f7ff ffd0 	bl	30b4 <mbed::FileBase::~FileBase()>
    3114:	4620      	mov	r0, r4
    3116:	f000 fab8 	bl	368a <operator delete(void*)>
    311a:	4620      	mov	r0, r4
    311c:	bd10      	pop	{r4, pc}
	...

00003120 <mbed::FileBase::lookup(char const*, unsigned int)>:
    3120:	b5f8      	push	{r3, r4, r5, r6, r7, lr}
    3122:	4607      	mov	r7, r0
    3124:	4810      	ldr	r0, [pc, #64]	; (3168 <mbed::FileBase::lookup(char const*, unsigned int)+0x48>)
    3126:	460e      	mov	r6, r1
    3128:	f7ff ff86 	bl	3038 <SingletonPtr<rtos::Mutex>::get()>
    312c:	f04f 31ff 	mov.w	r1, #4294967295	; 0xffffffff
    3130:	f000 fbaa 	bl	3888 <rtos::Mutex::lock(unsigned long)>
    3134:	4b0d      	ldr	r3, [pc, #52]	; (316c <mbed::FileBase::lookup(char const*, unsigned int)+0x4c>)
    3136:	681c      	ldr	r4, [r3, #0]
    3138:	b164      	cbz	r4, 3154 <mbed::FileBase::lookup(char const*, unsigned int)+0x34>
    313a:	68a5      	ldr	r5, [r4, #8]
    313c:	b18d      	cbz	r5, 3162 <mbed::FileBase::lookup(char const*, unsigned int)+0x42>
    313e:	4632      	mov	r2, r6
    3140:	4639      	mov	r1, r7
    3142:	4628      	mov	r0, r5
    3144:	f003 f857 	bl	61f6 <strncmp>
    3148:	b958      	cbnz	r0, 3162 <mbed::FileBase::lookup(char const*, unsigned int)+0x42>
    314a:	4628      	mov	r0, r5
    314c:	f003 f84b 	bl	61e6 <strlen>
    3150:	4286      	cmp	r6, r0
    3152:	d106      	bne.n	3162 <mbed::FileBase::lookup(char const*, unsigned int)+0x42>
    3154:	4804      	ldr	r0, [pc, #16]	; (3168 <mbed::FileBase::lookup(char const*, unsigned int)+0x48>)
    3156:	f7ff ff6f 	bl	3038 <SingletonPtr<rtos::Mutex>::get()>
    315a:	f000 fb98 	bl	388e <rtos::Mutex::unlock()>
    315e:	4620      	mov	r0, r4
    3160:	bdf8      	pop	{r3, r4, r5, r6, r7, pc}
    3162:	6864      	ldr	r4, [r4, #4]
    3164:	e7e8      	b.n	3138 <mbed::FileBase::lookup(char const*, unsigned int)+0x18>
    3166:	bf00      	nop
    3168:	100015b8 	.word	0x100015b8
    316c:	100015b4 	.word	0x100015b4

00003170 <mbed::donothing()>:
    3170:	4770      	bx	lr

00003172 <mbed::SerialBase::lock()>:
    3172:	4770      	bx	lr

00003174 <mbed::SerialBase::unlock()>:
    3174:	4770      	bx	lr

00003176 <mbed::SerialBase::_irq_handler(unsigned long, SerialIrq)>:
    3176:	eb00 1201 	add.w	r2, r0, r1, lsl #4
    317a:	6993      	ldr	r3, [r2, #24]
    317c:	f102 000c 	add.w	r0, r2, #12
    3180:	681b      	ldr	r3, [r3, #0]
    3182:	4718      	bx	r3

00003184 <mbed::SerialBase::baud(int)>:
    3184:	b570      	push	{r4, r5, r6, lr}
    3186:	4605      	mov	r5, r0
    3188:	460e      	mov	r6, r1
    318a:	4604      	mov	r4, r0
    318c:	f855 3b04 	ldr.w	r3, [r5], #4
    3190:	681b      	ldr	r3, [r3, #0]
    3192:	4798      	blx	r3
    3194:	4628      	mov	r0, r5
    3196:	4631      	mov	r1, r6
    3198:	f7ff fa0a 	bl	25b0 <serial_baud>
    319c:	6823      	ldr	r3, [r4, #0]
    319e:	62e6      	str	r6, [r4, #44]	; 0x2c
    31a0:	4620      	mov	r0, r4
    31a2:	e8bd 4070 	ldmia.w	sp!, {r4, r5, r6, lr}
    31a6:	685b      	ldr	r3, [r3, #4]
    31a8:	4718      	bx	r3

000031aa <mbed::SerialBase::_base_getc()>:
    31aa:	3004      	adds	r0, #4
    31ac:	f7ff bae0 	b.w	2770 <serial_getc>

000031b0 <mbed::SerialBase::_base_putc(int)>:
    31b0:	b510      	push	{r4, lr}
    31b2:	460c      	mov	r4, r1
    31b4:	3004      	adds	r0, #4
    31b6:	f7ff fb1b 	bl	27f0 <serial_putc>
    31ba:	4620      	mov	r0, r4
    31bc:	bd10      	pop	{r4, pc}
	...

000031c0 <mbed::SerialBase::SerialBase(PinName, PinName, int)>:
    31c0:	e92d 41ff 	stmdb	sp!, {r0, r1, r2, r3, r4, r5, r6, r7, r8, lr}
    31c4:	460f      	mov	r7, r1
    31c6:	2100      	movs	r1, #0
    31c8:	4604      	mov	r4, r0
    31ca:	4690      	mov	r8, r2
    31cc:	4a17      	ldr	r2, [pc, #92]	; (322c <mbed::SerialBase::SerialBase(PinName, PinName, int)+0x6c>)
    31ce:	4e18      	ldr	r6, [pc, #96]	; (3230 <mbed::SerialBase::SerialBase(PinName, PinName, int)+0x70>)
    31d0:	4d18      	ldr	r5, [pc, #96]	; (3234 <mbed::SerialBase::SerialBase(PinName, PinName, int)+0x74>)
    31d2:	62c3      	str	r3, [r0, #44]	; 0x2c
    31d4:	6002      	str	r2, [r0, #0]
    31d6:	6041      	str	r1, [r0, #4]
    31d8:	6081      	str	r1, [r0, #8]
    31da:	6181      	str	r1, [r0, #24]
    31dc:	6281      	str	r1, [r0, #40]	; 0x28
    31de:	4669      	mov	r1, sp
    31e0:	300c      	adds	r0, #12
    31e2:	9503      	str	r5, [sp, #12]
    31e4:	9600      	str	r6, [sp, #0]
    31e6:	f7ff ff13 	bl	3010 <mbed::Callback<void ()>::operator=(mbed::Callback<void ()> const&)>
    31ea:	4668      	mov	r0, sp
    31ec:	f7ff fd6f 	bl	2cce <mbed::Callback<void ()>::~Callback()>
    31f0:	4669      	mov	r1, sp
    31f2:	f104 001c 	add.w	r0, r4, #28
    31f6:	9503      	str	r5, [sp, #12]
    31f8:	9600      	str	r6, [sp, #0]
    31fa:	1d25      	adds	r5, r4, #4
    31fc:	f7ff ff08 	bl	3010 <mbed::Callback<void ()>::operator=(mbed::Callback<void ()> const&)>
    3200:	4668      	mov	r0, sp
    3202:	f7ff fd64 	bl	2cce <mbed::Callback<void ()>::~Callback()>
    3206:	4642      	mov	r2, r8
    3208:	4639      	mov	r1, r7
    320a:	4628      	mov	r0, r5
    320c:	f7ff fb8c 	bl	2928 <serial_init>
    3210:	6ae1      	ldr	r1, [r4, #44]	; 0x2c
    3212:	4628      	mov	r0, r5
    3214:	f7ff f9cc 	bl	25b0 <serial_baud>
    3218:	4628      	mov	r0, r5
    321a:	4622      	mov	r2, r4
    321c:	4906      	ldr	r1, [pc, #24]	; (3238 <mbed::SerialBase::SerialBase(PinName, PinName, int)+0x78>)
    321e:	f7ff fa9b 	bl	2758 <serial_irq_handler>
    3222:	4620      	mov	r0, r4
    3224:	b004      	add	sp, #16
    3226:	e8bd 81f0 	ldmia.w	sp!, {r4, r5, r6, r7, r8, pc}
    322a:	bf00      	nop
    322c:	00008684 	.word	0x00008684
    3230:	00003171 	.word	0x00003171
    3234:	00008660 	.word	0x00008660
    3238:	00003177 	.word	0x00003177

0000323c <mbed::File::close()>:
    323c:	b510      	push	{r4, lr}
    323e:	4604      	mov	r4, r0
    3240:	6900      	ldr	r0, [r0, #16]
    3242:	b130      	cbz	r0, 3252 <mbed::File::close()+0x16>
    3244:	6803      	ldr	r3, [r0, #0]
    3246:	6961      	ldr	r1, [r4, #20]
    3248:	6a5b      	ldr	r3, [r3, #36]	; 0x24
    324a:	4798      	blx	r3
    324c:	2300      	movs	r3, #0
    324e:	6123      	str	r3, [r4, #16]
    3250:	bd10      	pop	{r4, pc}
    3252:	f06f 0015 	mvn.w	r0, #21
    3256:	bd10      	pop	{r4, pc}

00003258 <mbed::File::read(void*, unsigned int)>:
    3258:	b430      	push	{r4, r5}
    325a:	4604      	mov	r4, r0
    325c:	6900      	ldr	r0, [r0, #16]
    325e:	6803      	ldr	r3, [r0, #0]
    3260:	6a9d      	ldr	r5, [r3, #40]	; 0x28
    3262:	4613      	mov	r3, r2
    3264:	46ac      	mov	r12, r5
    3266:	460a      	mov	r2, r1
    3268:	6961      	ldr	r1, [r4, #20]
    326a:	bc30      	pop	{r4, r5}
    326c:	4760      	bx	r12

0000326e <mbed::File::write(void const*, unsigned int)>:
    326e:	b430      	push	{r4, r5}
    3270:	4604      	mov	r4, r0
    3272:	6900      	ldr	r0, [r0, #16]
    3274:	6803      	ldr	r3, [r0, #0]
    3276:	6add      	ldr	r5, [r3, #44]	; 0x2c
    3278:	4613      	mov	r3, r2
    327a:	46ac      	mov	r12, r5
    327c:	460a      	mov	r2, r1
    327e:	6961      	ldr	r1, [r4, #20]
    3280:	bc30      	pop	{r4, r5}
    3282:	4760      	bx	r12

00003284 <mbed::File::sync()>:
    3284:	6903      	ldr	r3, [r0, #16]
    3286:	6941      	ldr	r1, [r0, #20]
    3288:	681a      	ldr	r2, [r3, #0]
    328a:	4618      	mov	r0, r3
    328c:	6b12      	ldr	r2, [r2, #48]	; 0x30
    328e:	4710      	bx	r2

00003290 <mbed::File::isatty()>:
    3290:	6903      	ldr	r3, [r0, #16]
    3292:	6941      	ldr	r1, [r0, #20]
    3294:	681a      	ldr	r2, [r3, #0]
    3296:	4618      	mov	r0, r3
    3298:	6b52      	ldr	r2, [r2, #52]	; 0x34
    329a:	4710      	bx	r2

0000329c <mbed::File::seek(long, int)>:
    329c:	b430      	push	{r4, r5}
    329e:	4604      	mov	r4, r0
    32a0:	6900      	ldr	r0, [r0, #16]
    32a2:	6803      	ldr	r3, [r0, #0]
    32a4:	6b9d      	ldr	r5, [r3, #56]	; 0x38
    32a6:	4613      	mov	r3, r2
    32a8:	46ac      	mov	r12, r5
    32aa:	460a      	mov	r2, r1
    32ac:	6961      	ldr	r1, [r4, #20]
    32ae:	bc30      	pop	{r4, r5}
    32b0:	4760      	bx	r12

000032b2 <mbed::File::tell()>:
    32b2:	6903      	ldr	r3, [r0, #16]
    32b4:	6941      	ldr	r1, [r0, #20]
    32b6:	681a      	ldr	r2, [r3, #0]
    32b8:	4618      	mov	r0, r3
    32ba:	6bd2      	ldr	r2, [r2, #60]	; 0x3c
    32bc:	4710      	bx	r2

000032be <mbed::File::rewind()>:
    32be:	6903      	ldr	r3, [r0, #16]
    32c0:	6941      	ldr	r1, [r0, #20]
    32c2:	681a      	ldr	r2, [r3, #0]
    32c4:	4618      	mov	r0, r3
    32c6:	6c12      	ldr	r2, [r2, #64]	; 0x40
    32c8:	4710      	bx	r2

000032ca <mbed::File::size()>:
    32ca:	6903      	ldr	r3, [r0, #16]
    32cc:	6941      	ldr	r1, [r0, #20]
    32ce:	681a      	ldr	r2, [r3, #0]
    32d0:	4618      	mov	r0, r3
    32d2:	6c52      	ldr	r2, [r2, #68]	; 0x44
    32d4:	4710      	bx	r2

000032d6 <mbed::File::open(mbed::FileSystem*, char const*, int)>:
    32d6:	b570      	push	{r4, r5, r6, lr}
    32d8:	460d      	mov	r5, r1
    32da:	6901      	ldr	r1, [r0, #16]
    32dc:	4604      	mov	r4, r0
    32de:	b941      	cbnz	r1, 32f2 <mbed::File::open(mbed::FileSystem*, char const*, int)+0x1c>
    32e0:	6829      	ldr	r1, [r5, #0]
    32e2:	6a0e      	ldr	r6, [r1, #32]
    32e4:	f100 0114 	add.w	r1, r0, #20
    32e8:	4628      	mov	r0, r5
    32ea:	47b0      	blx	r6
    32ec:	b918      	cbnz	r0, 32f6 <mbed::File::open(mbed::FileSystem*, char const*, int)+0x20>
    32ee:	6125      	str	r5, [r4, #16]
    32f0:	bd70      	pop	{r4, r5, r6, pc}
    32f2:	f06f 0015 	mvn.w	r0, #21
    32f6:	bd70      	pop	{r4, r5, r6, pc}

000032f8 <mbed::File::~File()>:
    32f8:	4b07      	ldr	r3, [pc, #28]	; (3318 <mbed::File::~File()+0x20>)
    32fa:	b510      	push	{r4, lr}
    32fc:	6003      	str	r3, [r0, #0]
    32fe:	6903      	ldr	r3, [r0, #16]
    3300:	4604      	mov	r4, r0
    3302:	b10b      	cbz	r3, 3308 <mbed::File::~File()+0x10>
    3304:	f7ff ff9a 	bl	323c <mbed::File::close()>
    3308:	4b04      	ldr	r3, [pc, #16]	; (331c <mbed::File::~File()+0x24>)
    330a:	4620      	mov	r0, r4
    330c:	6023      	str	r3, [r4, #0]
    330e:	f7ff fed1 	bl	30b4 <mbed::FileBase::~FileBase()>
    3312:	4620      	mov	r0, r4
    3314:	bd10      	pop	{r4, pc}
    3316:	bf00      	nop
    3318:	0000869c 	.word	0x0000869c
    331c:	00008598 	.word	0x00008598

00003320 <mbed::File::~File()>:
    3320:	b510      	push	{r4, lr}
    3322:	4604      	mov	r4, r0
    3324:	f7ff ffe8 	bl	32f8 <mbed::File::~File()>
    3328:	4620      	mov	r0, r4
    332a:	f000 f9ae 	bl	368a <operator delete(void*)>
    332e:	4620      	mov	r0, r4
    3330:	bd10      	pop	{r4, pc}
	...

00003334 <mbed::File::File()>:
    3334:	2200      	movs	r2, #0
    3336:	b510      	push	{r4, lr}
    3338:	4604      	mov	r4, r0
    333a:	4611      	mov	r1, r2
    333c:	f7ff fe96 	bl	306c <mbed::FileBase::FileBase(char const*, mbed::PathType)>
    3340:	4b03      	ldr	r3, [pc, #12]	; (3350 <mbed::File::File()+0x1c>)
    3342:	4620      	mov	r0, r4
    3344:	6023      	str	r3, [r4, #0]
    3346:	2300      	movs	r3, #0
    3348:	6123      	str	r3, [r4, #16]
    334a:	6163      	str	r3, [r4, #20]
    334c:	bd10      	pop	{r4, pc}
    334e:	bf00      	nop
    3350:	0000869c 	.word	0x0000869c

00003354 <__wrap__malloc_r>:
    3354:	f001 be1a 	b.w	4f8c <_malloc_r>

00003358 <__wrap__realloc_r>:
    3358:	f001 be76 	b.w	5048 <_realloc_r>

0000335c <__wrap__free_r>:
    335c:	f001 bdca 	b.w	4ef4 <_free_r>

00003360 <__wrap__calloc_r>:
    3360:	f001 bdb9 	b.w	4ed6 <_calloc_r>

00003364 <wait_us>:
    3364:	b570      	push	{r4, r5, r6, lr}
    3366:	4605      	mov	r5, r0
    3368:	f44f 747a 	mov.w	r4, #1000	; 0x3e8
    336c:	f7fe fec0 	bl	20f0 <us_ticker_read>
    3370:	fb95 f4f4 	sdiv	r4, r5, r4
    3374:	2c00      	cmp	r4, #0
    3376:	4606      	mov	r6, r0
    3378:	dd02      	ble.n	3380 <wait_us+0x1c>
    337a:	f7fd fae8 	bl	94e <core_util_are_interrupts_enabled>
    337e:	b928      	cbnz	r0, 338c <wait_us+0x28>
    3380:	f7fe feb6 	bl	20f0 <us_ticker_read>
    3384:	1b80      	subs	r0, r0, r6
    3386:	42a8      	cmp	r0, r5
    3388:	d3fa      	bcc.n	3380 <wait_us+0x1c>
    338a:	bd70      	pop	{r4, r5, r6, pc}
    338c:	4620      	mov	r0, r4
    338e:	f000 fa61 	bl	3854 <rtos::Thread::wait(unsigned long)>
    3392:	e7f5      	b.n	3380 <wait_us+0x1c>

00003394 <wait>:
    3394:	b508      	push	{r3, lr}
    3396:	4904      	ldr	r1, [pc, #16]	; (33a8 <wait+0x14>)
    3398:	f001 f88a 	bl	44b0 <__aeabi_fmul>
    339c:	f001 f9d8 	bl	4750 <__aeabi_f2iz>
    33a0:	e8bd 4008 	ldmia.w	sp!, {r3, lr}
    33a4:	f7ff bfde 	b.w	3364 <wait_us>
    33a8:	49742400 	.word	0x49742400

000033ac <wait_ms>:
    33ac:	f44f 737a 	mov.w	r3, #1000	; 0x3e8
    33b0:	4358      	muls	r0, r3
    33b2:	f7ff bfd7 	b.w	3364 <wait_us>
	...

000033b8 <ManagedFile::~ManagedFile()>:
    33b8:	4b03      	ldr	r3, [pc, #12]	; (33c8 <ManagedFile::~ManagedFile()+0x10>)
    33ba:	b510      	push	{r4, lr}
    33bc:	6003      	str	r3, [r0, #0]
    33be:	4604      	mov	r4, r0
    33c0:	f7ff ff9a 	bl	32f8 <mbed::File::~File()>
    33c4:	4620      	mov	r0, r4
    33c6:	bd10      	pop	{r4, pc}
    33c8:	000086e8 	.word	0x000086e8

000033cc <init_serial()>:
    33cc:	b508      	push	{r3, lr}
    33ce:	4b08      	ldr	r3, [pc, #32]	; (33f0 <init_serial()+0x24>)
    33d0:	681b      	ldr	r3, [r3, #0]
    33d2:	b95b      	cbnz	r3, 33ec <init_serial()+0x20>
    33d4:	4907      	ldr	r1, [pc, #28]	; (33f4 <init_serial()+0x28>)
    33d6:	4808      	ldr	r0, [pc, #32]	; (33f8 <init_serial()+0x2c>)
    33d8:	4a08      	ldr	r2, [pc, #32]	; (33fc <init_serial()+0x30>)
    33da:	f7ff faa5 	bl	2928 <serial_init>
    33de:	f44f 5116 	mov.w	r1, #9600	; 0x2580
    33e2:	e8bd 4008 	ldmia.w	sp!, {r3, lr}
    33e6:	4804      	ldr	r0, [pc, #16]	; (33f8 <init_serial()+0x2c>)
    33e8:	f7ff b8e2 	b.w	25b0 <serial_baud>
    33ec:	bd08      	pop	{r3, pc}
    33ee:	bf00      	nop
    33f0:	100014b0 	.word	0x100014b0
    33f4:	2009c002 	.word	0x2009c002
    33f8:	10002168 	.word	0x10002168
    33fc:	2009c003 	.word	0x2009c003

00003400 <mbed_sdk_init>:
    3400:	4770      	bx	lr
	...

00003404 <_close>:
    3404:	2802      	cmp	r0, #2
    3406:	b510      	push	{r4, lr}
    3408:	4604      	mov	r4, r0
    340a:	dc01      	bgt.n	3410 <_close+0xc>
    340c:	2000      	movs	r0, #0
    340e:	bd10      	pop	{r4, pc}
    3410:	f001 f9c4 	bl	479c <__errno>
    3414:	2309      	movs	r3, #9
    3416:	2200      	movs	r2, #0
    3418:	6003      	str	r3, [r0, #0]
    341a:	4b09      	ldr	r3, [pc, #36]	; (3440 <_close+0x3c>)
    341c:	3c03      	subs	r4, #3
    341e:	f853 0024 	ldr.w	r0, [r3, r4, lsl #2]
    3422:	f843 2024 	str.w	r2, [r3, r4, lsl #2]
    3426:	b140      	cbz	r0, 343a <_close+0x36>
    3428:	6803      	ldr	r3, [r0, #0]
    342a:	691b      	ldr	r3, [r3, #16]
    342c:	4798      	blx	r3
    342e:	1e04      	subs	r4, r0, #0
    3430:	daec      	bge.n	340c <_close+0x8>
    3432:	f001 f9b3 	bl	479c <__errno>
    3436:	4264      	negs	r4, r4
    3438:	6004      	str	r4, [r0, #0]
    343a:	f04f 30ff 	mov.w	r0, #4294967295	; 0xffffffff
    343e:	bd10      	pop	{r4, pc}
    3440:	100015d4 	.word	0x100015d4

00003444 <_write>:
    3444:	b5f8      	push	{r3, r4, r5, r6, r7, lr}
    3446:	4605      	mov	r5, r0
    3448:	460e      	mov	r6, r1
    344a:	4614      	mov	r4, r2
    344c:	f001 f9a6 	bl	479c <__errno>
    3450:	2309      	movs	r3, #9
    3452:	2d02      	cmp	r5, #2
    3454:	6003      	str	r3, [r0, #0]
    3456:	dc0f      	bgt.n	3478 <_write+0x34>
    3458:	4b12      	ldr	r3, [pc, #72]	; (34a4 <_write+0x60>)
    345a:	681b      	ldr	r3, [r3, #0]
    345c:	b90b      	cbnz	r3, 3462 <_write+0x1e>
    345e:	f7ff ffb5 	bl	33cc <init_serial()>
    3462:	4635      	mov	r5, r6
    3464:	1937      	adds	r7, r6, r4
    3466:	4e10      	ldr	r6, [pc, #64]	; (34a8 <_write+0x64>)
    3468:	42bd      	cmp	r5, r7
    346a:	d015      	beq.n	3498 <_write+0x54>
    346c:	f815 1b01 	ldrb.w	r1, [r5], #1
    3470:	4630      	mov	r0, r6
    3472:	f7ff f9bd 	bl	27f0 <serial_putc>
    3476:	e7f7      	b.n	3468 <_write+0x24>
    3478:	4b0c      	ldr	r3, [pc, #48]	; (34ac <_write+0x68>)
    347a:	3d03      	subs	r5, #3
    347c:	f853 0025 	ldr.w	r0, [r3, r5, lsl #2]
    3480:	b160      	cbz	r0, 349c <_write+0x58>
    3482:	6803      	ldr	r3, [r0, #0]
    3484:	4622      	mov	r2, r4
    3486:	68db      	ldr	r3, [r3, #12]
    3488:	4631      	mov	r1, r6
    348a:	4798      	blx	r3
    348c:	1e04      	subs	r4, r0, #0
    348e:	da03      	bge.n	3498 <_write+0x54>
    3490:	f001 f984 	bl	479c <__errno>
    3494:	4263      	negs	r3, r4
    3496:	6003      	str	r3, [r0, #0]
    3498:	4620      	mov	r0, r4
    349a:	bdf8      	pop	{r3, r4, r5, r6, r7, pc}
    349c:	f04f 34ff 	mov.w	r4, #4294967295	; 0xffffffff
    34a0:	e7fa      	b.n	3498 <_write+0x54>
    34a2:	bf00      	nop
    34a4:	100014b0 	.word	0x100014b0
    34a8:	10002168 	.word	0x10002168
    34ac:	100015d4 	.word	0x100015d4

000034b0 <_read>:
    34b0:	b570      	push	{r4, r5, r6, lr}
    34b2:	4604      	mov	r4, r0
    34b4:	460d      	mov	r5, r1
    34b6:	4616      	mov	r6, r2
    34b8:	f001 f970 	bl	479c <__errno>
    34bc:	2309      	movs	r3, #9
    34be:	2c02      	cmp	r4, #2
    34c0:	6003      	str	r3, [r0, #0]
    34c2:	dc0b      	bgt.n	34dc <_read+0x2c>
    34c4:	4b0f      	ldr	r3, [pc, #60]	; (3504 <_read+0x54>)
    34c6:	681b      	ldr	r3, [r3, #0]
    34c8:	b90b      	cbnz	r3, 34ce <_read+0x1e>
    34ca:	f7ff ff7f 	bl	33cc <init_serial()>
    34ce:	480e      	ldr	r0, [pc, #56]	; (3508 <_read+0x58>)
    34d0:	f7ff f94e 	bl	2770 <serial_getc>
    34d4:	2401      	movs	r4, #1
    34d6:	7028      	strb	r0, [r5, #0]
    34d8:	4620      	mov	r0, r4
    34da:	bd70      	pop	{r4, r5, r6, pc}
    34dc:	4b0b      	ldr	r3, [pc, #44]	; (350c <_read+0x5c>)
    34de:	3c03      	subs	r4, #3
    34e0:	f853 0024 	ldr.w	r0, [r3, r4, lsl #2]
    34e4:	b158      	cbz	r0, 34fe <_read+0x4e>
    34e6:	6803      	ldr	r3, [r0, #0]
    34e8:	4632      	mov	r2, r6
    34ea:	689b      	ldr	r3, [r3, #8]
    34ec:	4629      	mov	r1, r5
    34ee:	4798      	blx	r3
    34f0:	1e04      	subs	r4, r0, #0
    34f2:	daf1      	bge.n	34d8 <_read+0x28>
    34f4:	f001 f952 	bl	479c <__errno>
    34f8:	4263      	negs	r3, r4
    34fa:	6003      	str	r3, [r0, #0]
    34fc:	e7ec      	b.n	34d8 <_read+0x28>
    34fe:	f04f 34ff 	mov.w	r4, #4294967295	; 0xffffffff
    3502:	e7e9      	b.n	34d8 <_read+0x28>
    3504:	100014b0 	.word	0x100014b0
    3508:	10002168 	.word	0x10002168
    350c:	100015d4 	.word	0x100015d4

00003510 <_isatty>:
    3510:	b510      	push	{r4, lr}
    3512:	4604      	mov	r4, r0
    3514:	f001 f942 	bl	479c <__errno>
    3518:	2309      	movs	r3, #9
    351a:	2c02      	cmp	r4, #2
    351c:	6003      	str	r3, [r0, #0]
    351e:	dd10      	ble.n	3542 <_isatty+0x32>
    3520:	4b0a      	ldr	r3, [pc, #40]	; (354c <_isatty+0x3c>)
    3522:	3c03      	subs	r4, #3
    3524:	f853 0024 	ldr.w	r0, [r3, r4, lsl #2]
    3528:	b140      	cbz	r0, 353c <_isatty+0x2c>
    352a:	6803      	ldr	r3, [r0, #0]
    352c:	699b      	ldr	r3, [r3, #24]
    352e:	4798      	blx	r3
    3530:	1e04      	subs	r4, r0, #0
    3532:	da08      	bge.n	3546 <_isatty+0x36>
    3534:	f001 f932 	bl	479c <__errno>
    3538:	4264      	negs	r4, r4
    353a:	6004      	str	r4, [r0, #0]
    353c:	f04f 30ff 	mov.w	r0, #4294967295	; 0xffffffff
    3540:	bd10      	pop	{r4, pc}
    3542:	2001      	movs	r0, #1
    3544:	bd10      	pop	{r4, pc}
    3546:	2000      	movs	r0, #0
    3548:	bd10      	pop	{r4, pc}
    354a:	bf00      	nop
    354c:	100015d4 	.word	0x100015d4

00003550 <_lseek>:
    3550:	b570      	push	{r4, r5, r6, lr}
    3552:	4604      	mov	r4, r0
    3554:	460d      	mov	r5, r1
    3556:	4616      	mov	r6, r2
    3558:	f001 f920 	bl	479c <__errno>
    355c:	2309      	movs	r3, #9
    355e:	2c02      	cmp	r4, #2
    3560:	6003      	str	r3, [r0, #0]
    3562:	dd0b      	ble.n	357c <_lseek+0x2c>
    3564:	4b08      	ldr	r3, [pc, #32]	; (3588 <_lseek+0x38>)
    3566:	3c03      	subs	r4, #3
    3568:	f853 0024 	ldr.w	r0, [r3, r4, lsl #2]
    356c:	b140      	cbz	r0, 3580 <_lseek+0x30>
    356e:	6803      	ldr	r3, [r0, #0]
    3570:	4632      	mov	r2, r6
    3572:	4629      	mov	r1, r5
    3574:	e8bd 4070 	ldmia.w	sp!, {r4, r5, r6, lr}
    3578:	69db      	ldr	r3, [r3, #28]
    357a:	4718      	bx	r3
    357c:	2000      	movs	r0, #0
    357e:	bd70      	pop	{r4, r5, r6, pc}
    3580:	f04f 30ff 	mov.w	r0, #4294967295	; 0xffffffff
    3584:	bd70      	pop	{r4, r5, r6, pc}
    3586:	bf00      	nop
    3588:	100015d4 	.word	0x100015d4

0000358c <_fstat>:
    358c:	2802      	cmp	r0, #2
    358e:	b508      	push	{r3, lr}
    3590:	dc04      	bgt.n	359c <_fstat+0x10>
    3592:	f44f 5300 	mov.w	r3, #8192	; 0x2000
    3596:	2000      	movs	r0, #0
    3598:	604b      	str	r3, [r1, #4]
    359a:	bd08      	pop	{r3, pc}
    359c:	f001 f8fe 	bl	479c <__errno>
    35a0:	2309      	movs	r3, #9
    35a2:	6003      	str	r3, [r0, #0]
    35a4:	f04f 30ff 	mov.w	r0, #4294967295	; 0xffffffff
    35a8:	bd08      	pop	{r3, pc}

000035aa <software_init_hook>:
    35aa:	b508      	push	{r3, lr}
    35ac:	f7ff ff28 	bl	3400 <mbed_sdk_init>
    35b0:	f7fd faae 	bl	b10 <software_init_hook_rtos>
    35b4:	bd08      	pop	{r3, pc}

000035b6 <mbed_main>:
    35b6:	4770      	bx	lr

000035b8 <__wrap_main>:
    35b8:	b508      	push	{r3, lr}
    35ba:	f7ff fffc 	bl	35b6 <mbed_main>
    35be:	e8bd 4008 	ldmia.w	sp!, {r3, lr}
    35c2:	f7fc bf91 	b.w	4e8 <main>
	...

000035c8 <_sbrk>:
    35c8:	4a0c      	ldr	r2, [pc, #48]	; (35fc <_sbrk+0x34>)
    35ca:	b510      	push	{r4, lr}
    35cc:	6813      	ldr	r3, [r2, #0]
    35ce:	4418      	add	r0, r3
    35d0:	f3ef 8108 	mrs	r1, MSP
    35d4:	4288      	cmp	r0, r1
    35d6:	d305      	bcc.n	35e4 <_sbrk+0x1c>
    35d8:	220c      	movs	r2, #12
    35da:	4b09      	ldr	r3, [pc, #36]	; (3600 <_sbrk+0x38>)
    35dc:	f04f 30ff 	mov.w	r0, #4294967295	; 0xffffffff
    35e0:	601a      	str	r2, [r3, #0]
    35e2:	bd10      	pop	{r4, pc}
    35e4:	4907      	ldr	r1, [pc, #28]	; (3604 <_sbrk+0x3c>)
    35e6:	680c      	ldr	r4, [r1, #0]
    35e8:	b124      	cbz	r4, 35f4 <_sbrk+0x2c>
    35ea:	4907      	ldr	r1, [pc, #28]	; (3608 <_sbrk+0x40>)
    35ec:	6809      	ldr	r1, [r1, #0]
    35ee:	4421      	add	r1, r4
    35f0:	4288      	cmp	r0, r1
    35f2:	d2f1      	bcs.n	35d8 <_sbrk+0x10>
    35f4:	6010      	str	r0, [r2, #0]
    35f6:	4618      	mov	r0, r3
    35f8:	bd10      	pop	{r4, pc}
    35fa:	bf00      	nop
    35fc:	100000e8 	.word	0x100000e8
    3600:	10002170 	.word	0x10002170
    3604:	100016f0 	.word	0x100016f0
    3608:	100016f4 	.word	0x100016f4

0000360c <_exit>:
    360c:	4c09      	ldr	r4, [pc, #36]	; (3634 <_exit+0x28>)
    360e:	b508      	push	{r3, lr}
    3610:	6823      	ldr	r3, [r4, #0]
    3612:	4605      	mov	r5, r0
    3614:	6898      	ldr	r0, [r3, #8]
    3616:	f001 f9d3 	bl	49c0 <fflush>
    361a:	6823      	ldr	r3, [r4, #0]
    361c:	68d8      	ldr	r0, [r3, #12]
    361e:	f001 f9cf 	bl	49c0 <fflush>
    3622:	f7fd f983 	bl	92c <mbed_interface_connected>
    3626:	b108      	cbz	r0, 362c <_exit+0x20>
    3628:	f7fd f9ae 	bl	988 <semihost_exit>
    362c:	b10d      	cbz	r5, 3632 <_exit+0x26>
    362e:	f7fd f9cb 	bl	9c8 <mbed_die>
    3632:	e7fe      	b.n	3632 <_exit+0x26>
    3634:	100000ec 	.word	0x100000ec

00003638 <__aeabi_atexit>:
    3638:	2001      	movs	r0, #1
    363a:	4770      	bx	lr

0000363c <__wrap_exit>:
    363c:	b508      	push	{r3, lr}
    363e:	f7ff ffe5 	bl	360c <_exit>

00003642 <mbed::mbed_set_unbuffered_stream(__sFILE*)>:
    3642:	2100      	movs	r1, #0
    3644:	f002 bc7b 	b.w	5f3e <setbuf>

00003648 <__malloc_lock>:
    3648:	b508      	push	{r3, lr}
    364a:	f7fd fa6f 	bl	b2c <__rtos_malloc_lock>
    364e:	bd08      	pop	{r3, pc}

00003650 <__malloc_unlock>:
    3650:	b508      	push	{r3, lr}
    3652:	f7fd fa73 	bl	b3c <__rtos_malloc_unlock>
    3656:	bd08      	pop	{r3, pc}

00003658 <operator new(unsigned int)>:
    3658:	b510      	push	{r4, lr}
    365a:	f001 fbf1 	bl	4e40 <malloc>
    365e:	4604      	mov	r4, r0
    3660:	b910      	cbnz	r0, 3668 <operator new(unsigned int)+0x10>
    3662:	4802      	ldr	r0, [pc, #8]	; (366c <operator new(unsigned int)+0x14>)
    3664:	f7fd f9ec 	bl	a40 <error>
    3668:	4620      	mov	r0, r4
    366a:	bd10      	pop	{r4, pc}
    366c:	0000872c 	.word	0x0000872c

00003670 <operator delete[](void*)>:
    3670:	b108      	cbz	r0, 3676 <operator delete[](void*)+0x6>
    3672:	f001 bbed 	b.w	4e50 <free>
    3676:	4770      	bx	lr

00003678 <ManagedFile::~ManagedFile()>:
    3678:	b510      	push	{r4, lr}
    367a:	4604      	mov	r4, r0
    367c:	f7ff fe9c 	bl	33b8 <ManagedFile::~ManagedFile()>
    3680:	4620      	mov	r0, r4
    3682:	f7ff fff5 	bl	3670 <operator delete[](void*)>
    3686:	4620      	mov	r0, r4
    3688:	bd10      	pop	{r4, pc}

0000368a <operator delete(void*)>:
    368a:	f7ff bff1 	b.w	3670 <operator delete[](void*)>
	...

00003690 <mbed::remove_filehandle(mbed::FileLike*)>:
    3690:	b510      	push	{r4, lr}
    3692:	4604      	mov	r4, r0
    3694:	480c      	ldr	r0, [pc, #48]	; (36c8 <mbed::remove_filehandle(mbed::FileLike*)+0x38>)
    3696:	f7ff fccf 	bl	3038 <SingletonPtr<rtos::Mutex>::get()>
    369a:	f04f 31ff 	mov.w	r1, #4294967295	; 0xffffffff
    369e:	f000 f8f3 	bl	3888 <rtos::Mutex::lock(unsigned long)>
    36a2:	2300      	movs	r3, #0
    36a4:	4619      	mov	r1, r3
    36a6:	4a09      	ldr	r2, [pc, #36]	; (36cc <mbed::remove_filehandle(mbed::FileLike*)+0x3c>)
    36a8:	f852 0023 	ldr.w	r0, [r2, r3, lsl #2]
    36ac:	42a0      	cmp	r0, r4
    36ae:	bf08      	it	eq
    36b0:	f842 1023 	streq.w	r1, [r2, r3, lsl #2]
    36b4:	3301      	adds	r3, #1
    36b6:	2b40      	cmp	r3, #64	; 0x40
    36b8:	d1f6      	bne.n	36a8 <mbed::remove_filehandle(mbed::FileLike*)+0x18>
    36ba:	4803      	ldr	r0, [pc, #12]	; (36c8 <mbed::remove_filehandle(mbed::FileLike*)+0x38>)
    36bc:	f7ff fcbc 	bl	3038 <SingletonPtr<rtos::Mutex>::get()>
    36c0:	e8bd 4010 	ldmia.w	sp!, {r4, lr}
    36c4:	f000 b8e3 	b.w	388e <rtos::Mutex::unlock()>
    36c8:	100016d4 	.word	0x100016d4
    36cc:	100015d4 	.word	0x100015d4

000036d0 <_open>:
    36d0:	e92d 47f3 	stmdb	sp!, {r0, r1, r4, r5, r6, r7, r8, r9, r10, lr}
    36d4:	4689      	mov	r9, r1
    36d6:	494e      	ldr	r1, [pc, #312]	; (3810 <_open+0x140>)
    36d8:	4606      	mov	r6, r0
    36da:	f002 fd7a 	bl	61d2 <strcmp>
    36de:	4604      	mov	r4, r0
    36e0:	b928      	cbnz	r0, 36ee <_open+0x1e>
    36e2:	f7ff fe73 	bl	33cc <init_serial()>
    36e6:	4620      	mov	r0, r4
    36e8:	b002      	add	sp, #8
    36ea:	e8bd 87f0 	ldmia.w	sp!, {r4, r5, r6, r7, r8, r9, r10, pc}
    36ee:	4949      	ldr	r1, [pc, #292]	; (3814 <_open+0x144>)
    36f0:	4630      	mov	r0, r6
    36f2:	f002 fd6e 	bl	61d2 <strcmp>
    36f6:	b918      	cbnz	r0, 3700 <_open+0x30>
    36f8:	f7ff fe68 	bl	33cc <init_serial()>
    36fc:	2401      	movs	r4, #1
    36fe:	e7f2      	b.n	36e6 <_open+0x16>
    3700:	4945      	ldr	r1, [pc, #276]	; (3818 <_open+0x148>)
    3702:	4630      	mov	r0, r6
    3704:	f002 fd65 	bl	61d2 <strcmp>
    3708:	b918      	cbnz	r0, 3712 <_open+0x42>
    370a:	f7ff fe5f 	bl	33cc <init_serial()>
    370e:	2402      	movs	r4, #2
    3710:	e7e9      	b.n	36e6 <_open+0x16>
    3712:	f001 f843 	bl	479c <__errno>
    3716:	2309      	movs	r3, #9
    3718:	4f40      	ldr	r7, [pc, #256]	; (381c <_open+0x14c>)
    371a:	6003      	str	r3, [r0, #0]
    371c:	4840      	ldr	r0, [pc, #256]	; (3820 <_open+0x150>)
    371e:	f7ff fc8b 	bl	3038 <SingletonPtr<rtos::Mutex>::get()>
    3722:	f04f 31ff 	mov.w	r1, #4294967295	; 0xffffffff
    3726:	f000 f8af 	bl	3888 <rtos::Mutex::lock(unsigned long)>
    372a:	2400      	movs	r4, #0
    372c:	46b8      	mov	r8, r7
    372e:	f857 5024 	ldr.w	r5, [r7, r4, lsl #2]
    3732:	2d00      	cmp	r5, #0
    3734:	d054      	beq.n	37e0 <_open+0x110>
    3736:	3401      	adds	r4, #1
    3738:	2c40      	cmp	r4, #64	; 0x40
    373a:	d1f8      	bne.n	372e <_open+0x5e>
    373c:	f001 f82e 	bl	479c <__errno>
    3740:	2318      	movs	r3, #24
    3742:	6003      	str	r3, [r0, #0]
    3744:	4836      	ldr	r0, [pc, #216]	; (3820 <_open+0x150>)
    3746:	f7ff fc77 	bl	3038 <SingletonPtr<rtos::Mutex>::get()>
    374a:	f000 f8a0 	bl	388e <rtos::Mutex::unlock()>
    374e:	e00d      	b.n	376c <_open+0x9c>
    3750:	4631      	mov	r1, r6
    3752:	4668      	mov	r0, sp
    3754:	f7ff fc10 	bl	2f78 <mbed::FilePath::FilePath(char const*)>
    3758:	4668      	mov	r0, sp
    375a:	f7ff fc4d 	bl	2ff8 <mbed::FilePath::exists()>
    375e:	b940      	cbnz	r0, 3772 <_open+0xa2>
    3760:	f847 0024 	str.w	r0, [r7, r4, lsl #2]
    3764:	f001 f81a 	bl	479c <__errno>
    3768:	2302      	movs	r3, #2
    376a:	6003      	str	r3, [r0, #0]
    376c:	f04f 34ff 	mov.w	r4, #4294967295	; 0xffffffff
    3770:	e7b9      	b.n	36e6 <_open+0x16>
    3772:	4668      	mov	r0, sp
    3774:	f7ff fc30 	bl	2fd8 <mbed::FilePath::isFile()>
    3778:	b120      	cbz	r0, 3784 <_open+0xb4>
    377a:	4668      	mov	r0, sp
    377c:	f7ff fc35 	bl	2fea <mbed::FilePath::file()>
    3780:	4605      	mov	r5, r0
    3782:	e03f      	b.n	3804 <_open+0x134>
    3784:	4668      	mov	r0, sp
    3786:	f7ff fc20 	bl	2fca <mbed::FilePath::fileSystem()>
    378a:	4682      	mov	r10, r0
    378c:	b930      	cbnz	r0, 379c <_open+0xcc>
    378e:	f001 f805 	bl	479c <__errno>
    3792:	2302      	movs	r3, #2
    3794:	6003      	str	r3, [r0, #0]
    3796:	f847 a024 	str.w	r10, [r7, r4, lsl #2]
    379a:	e7e7      	b.n	376c <_open+0x9c>
    379c:	2018      	movs	r0, #24
    379e:	f7ff ff5b 	bl	3658 <operator new(unsigned int)>
    37a2:	4606      	mov	r6, r0
    37a4:	f7ff fdc6 	bl	3334 <mbed::File::File()>
    37a8:	4b1e      	ldr	r3, [pc, #120]	; (3824 <_open+0x154>)
    37aa:	4668      	mov	r0, sp
    37ac:	6033      	str	r3, [r6, #0]
    37ae:	f7ff fc01 	bl	2fb4 <mbed::FilePath::fileName()>
    37b2:	f429 3380 	bic.w	r3, r9, #65536	; 0x10000
    37b6:	4602      	mov	r2, r0
    37b8:	4651      	mov	r1, r10
    37ba:	4630      	mov	r0, r6
    37bc:	f7ff fd8b 	bl	32d6 <mbed::File::open(mbed::FileSystem*, char const*, int)>
    37c0:	1e07      	subs	r7, r0, #0
    37c2:	da0b      	bge.n	37dc <_open+0x10c>
    37c4:	f000 ffea 	bl	479c <__errno>
    37c8:	427f      	negs	r7, r7
    37ca:	6007      	str	r7, [r0, #0]
    37cc:	b11e      	cbz	r6, 37d6 <_open+0x106>
    37ce:	6833      	ldr	r3, [r6, #0]
    37d0:	4630      	mov	r0, r6
    37d2:	685b      	ldr	r3, [r3, #4]
    37d4:	4798      	blx	r3
    37d6:	f848 5024 	str.w	r5, [r8, r4, lsl #2]
    37da:	e7c7      	b.n	376c <_open+0x9c>
    37dc:	4635      	mov	r5, r6
    37de:	e011      	b.n	3804 <_open+0x134>
    37e0:	f04f 33ff 	mov.w	r3, #4294967295	; 0xffffffff
    37e4:	480e      	ldr	r0, [pc, #56]	; (3820 <_open+0x150>)
    37e6:	f847 3024 	str.w	r3, [r7, r4, lsl #2]
    37ea:	f7ff fc25 	bl	3038 <SingletonPtr<rtos::Mutex>::get()>
    37ee:	f000 f84e 	bl	388e <rtos::Mutex::unlock()>
    37f2:	7833      	ldrb	r3, [r6, #0]
    37f4:	2b3a      	cmp	r3, #58	; 0x3a
    37f6:	d1ab      	bne.n	3750 <_open+0x80>
    37f8:	466a      	mov	r2, sp
    37fa:	490b      	ldr	r1, [pc, #44]	; (3828 <_open+0x158>)
    37fc:	4630      	mov	r0, r6
    37fe:	f002 fc79 	bl	60f4 <siscanf>
    3802:	9d00      	ldr	r5, [sp, #0]
    3804:	2d00      	cmp	r5, #0
    3806:	d0e6      	beq.n	37d6 <_open+0x106>
    3808:	f848 5024 	str.w	r5, [r8, r4, lsl #2]
    380c:	3403      	adds	r4, #3
    380e:	e76a      	b.n	36e6 <_open+0x16>
    3810:	00008751 	.word	0x00008751
    3814:	00008758 	.word	0x00008758
    3818:	00008749 	.word	0x00008749
    381c:	100015d4 	.word	0x100015d4
    3820:	100016d4 	.word	0x100016d4
    3824:	000086e8 	.word	0x000086e8
    3828:	000085d8 	.word	0x000085d8

0000382c <ManagedFile::close()>:
    382c:	b538      	push	{r3, r4, r5, lr}
    382e:	4604      	mov	r4, r0
    3830:	f7ff fd04 	bl	323c <mbed::File::close()>
    3834:	4605      	mov	r5, r0
    3836:	b11c      	cbz	r4, 3840 <ManagedFile::close()+0x14>
    3838:	6823      	ldr	r3, [r4, #0]
    383a:	4620      	mov	r0, r4
    383c:	685b      	ldr	r3, [r3, #4]
    383e:	4798      	blx	r3
    3840:	4628      	mov	r0, r5
    3842:	bd38      	pop	{r3, r4, r5, pc}

00003844 <thread_terminate_hook>:
